

Microchip MPLAB XC8 Assembler V2.05 build -831301201 
                                                                                               Thu Jun 20 23:51:34 2019

Microchip MPLAB XC8 C Compiler v2.05 (Free license) build 20181220022703 Og1 
     1                           	processor	18F46K40
     2                           	fnconf	rparam,??,?,0
     3                           	opt	pw 120
     4                           	opt	flic
     5                           	psect	smallconst,global,reloc=2,class=SMALLCONST,delta=1,noexec
     6                           	psect	nvCOMRAM,global,class=COMRAM,space=1,delta=1,noexec
     7                           	psect	cinit,global,reloc=2,class=CODE,delta=1
     8                           	psect	bssCOMRAM,global,class=COMRAM,space=1,delta=1,noexec
     9                           	psect	cstackBANK0,global,class=BANK0,space=1,delta=1,noexec
    10                           	psect	cstackCOMRAM,global,class=COMRAM,space=1,delta=1,noexec
    11                           	psect	text0,global,reloc=2,class=CODE,delta=1
    12                           	psect	text1,global,reloc=2,class=CODE,delta=1
    13                           	psect	text2,global,reloc=2,class=CODE,delta=1
    14                           	psect	text3,global,reloc=2,class=CODE,delta=1
    15                           	psect	text4,global,reloc=2,class=CODE,delta=1
    16                           	psect	text5,global,reloc=2,class=CODE,delta=1
    17                           	psect	text6,global,reloc=2,class=CODE,delta=1
    18                           	psect	text7,global,reloc=2,class=CODE,delta=1
    19                           	psect	text8,global,reloc=2,class=CODE,delta=1
    20                           	psect	text9,global,reloc=2,class=CODE,delta=1
    21                           	psect	text10,global,reloc=2,class=CODE,delta=1
    22                           	psect	text11,global,reloc=2,class=CODE,delta=1
    23                           	psect	text12,global,reloc=2,class=CODE,delta=1
    24                           	psect	text13,global,reloc=2,class=CODE,delta=1
    25                           	psect	text14,global,reloc=2,class=CODE,delta=1
    26                           	psect	text15,global,reloc=2,class=CODE,delta=1
    27                           	psect	text16,global,reloc=2,class=CODE,delta=1
    28                           	psect	intcode,global,reloc=2,class=CODE,delta=1
    29                           	psect	text18,global,reloc=2,class=CODE,delta=1
    30                           	psect	text19,global,reloc=2,class=CODE,delta=1,inline
    31                           	psect	text20,global,reloc=2,class=CODE,delta=1
    32                           	psect	text21,global,reloc=2,class=CODE,delta=1,inline
    33                           	psect	text22,global,reloc=2,class=CODE,delta=1
    34                           	psect	text23,global,reloc=2,class=CODE,delta=1
    35                           	psect	text24,global,reloc=2,class=CODE,delta=1
    36                           	psect	text25,global,reloc=2,class=CODE,delta=1
    37                           	psect	text26,global,reloc=2,class=CODE,delta=1
    38                           	psect	text27,global,reloc=2,class=CODE,delta=1
    39                           	psect	text28,global,reloc=2,class=CODE,delta=1
    40                           	psect	text29,global,reloc=2,class=CODE,delta=1
    41                           	psect	text30,global,reloc=2,class=CODE,delta=1
    42                           	psect	text31,global,reloc=2,class=CODE,delta=1
    43                           	psect	text32,global,reloc=2,class=CODE,delta=1
    44                           	psect	text33,global,reloc=2,class=CODE,delta=1
    45                           	psect	text34,global,reloc=2,class=CODE,delta=1
    46                           	psect	text35,global,reloc=2,class=CODE,delta=1
    47                           	psect	text36,global,reloc=2,class=CODE,delta=1
    48                           	psect	text37,global,reloc=2,class=CODE,delta=1
    49                           	psect	text38,global,reloc=2,class=CODE,delta=1,inline
    50                           	psect	text39,global,reloc=2,class=CODE,delta=1,inline
    51                           	psect	text40,global,reloc=2,class=CODE,delta=1,inline
    52                           	psect	text41,global,reloc=2,class=CODE,delta=1,inline
    53                           	psect	text42,global,reloc=2,class=CODE,delta=1,inline
    54                           	psect	text43,global,reloc=2,class=CODE,delta=1,inline
    55                           	psect	text44,global,reloc=2,class=CODE,delta=1,inline
    56                           	psect	text45,global,reloc=2,class=CODE,delta=1
    57                           	psect	text46,global,reloc=2,class=CODE,delta=1
    58                           	psect	text47,global,reloc=2,class=CODE,delta=1,inline
    59                           	psect	text48,global,reloc=2,class=CODE,delta=1,inline
    60                           	psect	text49,global,reloc=2,class=CODE,delta=1,inline
    61                           	psect	text50,global,reloc=2,class=CODE,delta=1
    62                           	psect	text51,global,reloc=2,class=CODE,delta=1
    63                           	psect	text52,global,reloc=2,class=CODE,delta=1
    64                           	psect	text53,global,reloc=2,class=CODE,delta=1
    65                           	psect	text54,global,reloc=2,class=CODE,delta=1
    66                           	psect	text55,global,reloc=2,class=CODE,delta=1
    67                           	psect	text56,global,reloc=2,class=CODE,delta=1
    68                           	psect	text57,global,reloc=2,class=CODE,delta=1
    69                           	psect	text58,global,reloc=2,class=CODE,delta=1
    70                           	psect	text59,global,reloc=2,class=CODE,delta=1
    71                           	psect	text60,global,reloc=2,class=CODE,delta=1
    72                           	psect	text61,global,reloc=2,class=CODE,delta=1
    73                           	psect	text62,global,reloc=2,class=CODE,delta=1
    74                           	psect	text63,global,reloc=2,class=CODE,delta=1
    75                           	psect	text64,global,reloc=2,class=CODE,delta=1
    76                           	psect	intsave_regs,global,class=BIGRAM,space=1,delta=1,noexec
    77                           	psect	text65,global,reloc=2,class=CODE,delta=1
    78                           	psect	rparam,global,class=COMRAM,space=1,delta=1,noexec
    79                           	psect	temp,global,ovrld,common,class=COMRAM,space=1,delta=1
    80  0000                     
    81                           ; Version 2.05
    82                           ; Generated 20/12/2018 GMT
    83                           ; 
    84                           ; Copyright © 2018, Microchip Technology Inc. and its subsidiaries ("Microchip")
    85                           ; All rights reserved.
    86                           ; 
    87                           ; This software is developed by Microchip Technology Inc. and its subsidiaries ("Microch
      +                          ip").
    88                           ; 
    89                           ; Redistribution and use in source and binary forms, with or without modification, are
    90                           ; permitted provided that the following conditions are met:
    91                           ; 
    92                           ;     1. Redistributions of source code must retain the above copyright notice, this lis
      +                          t of
    93                           ;        conditions and the following disclaimer.
    94                           ; 
    95                           ;     2. Redistributions in binary form must reproduce the above copyright notice, this 
      +                          list
    96                           ;        of conditions and the following disclaimer in the documentation and/or other
    97                           ;        materials provided with the distribution.
    98                           ; 
    99                           ;     3. Microchip's name may not be used to endorse or promote products derived from th
      +                          is
   100                           ;        software without specific prior written permission.
   101                           ; 
   102                           ; THIS SOFTWARE IS PROVIDED BY MICROCHIP "AS IS" AND ANY EXPRESS OR IMPLIED WARRANTIES,
   103                           ; INCLUDING, BUT NOT LIMITED TO, THE IMPLIED WARRANTIES OF MERCHANTABILITY AND FITNESS F
      +                          OR
   104                           ; PURPOSE ARE DISCLAIMED.  IN NO EVENT SHALL MICROCHIP BE LIABLE FOR ANY DIRECT, INDIREC
      +                          T,
   105                           ; INCIDENTAL, SPECIAL, EXEMPLARY, OR CONSEQUENTIAL DAMAGES (INCLUDING BUT NOT LIMITED TO
   106                           ; PROCUREMENT OF SUBSTITUTE GOODS OR SERVICES; LOSS OF USE, DATA OR PROFITS; OR BUSINESS
   107                           ; INTERRUPTION) HOWSOEVER CAUSED AND ON ANY THEORY OF LIABILITY, WHETHER IN CONTRACT, ST
      +                          RICT
   108                           ; LIABILITY, OR TORT (INCLUDING NEGLIGENCE OR OTHERWISE) ARISING IN ANY WAY OUT OF THE U
      +                          SE OF
   109                           ; THIS SOFTWARE, EVEN IF ADVISED OF THE POSSIBILITY OF SUCH DAMAGE.
   110                           ; 
   111                           ; 
   112                           ; Code-generator required, PIC18F46K40 Definitions
   113                           ; 
   114                           ; SFR Addresses
   115  0000                     
   116 ;; Function _spi2_close is unused but had its address taken
   117  0000                     
   118 ;; Function _spi2_exchangeByte is unused but had its address taken
   119  0000                     
   120 ;; Function _spi2_exchangeBlock is unused but had its address taken
   121  0000                     
   122 ;; Function _spi2_writeBlock is unused but had its address taken
   123  0000                     
   124 ;; Function _spi2_readBlock is unused but had its address taken
   125  0000                     
   126 ;; Function _spi2_writeByte is unused but had its address taken
   127  0000                     
   128 ;; Function _spi2_readByte is unused but had its address taken
   129  0000                     
   130 ;; Function _spi2_isr is unused but had its address taken
   131  0000                     
   132 ;; Function _spi2_setSpiISR is unused but had its address taken
   133  0000                     
   134 ;; Function _MASTER0_open is unused but had its address taken
   135  0000                     
   136                           	psect	smallconst
   137  000F00                     __psmallconst:
   138                           	opt callstack 0
   139  000F00  00                 	db	0
   140  000F01                     _fsmStateTable:
   141                           	opt callstack 0
   142  000F01  62                 	db	low _do_I2C_IDLE
   143  000F02  15                 	db	high _do_I2C_IDLE
   144  000F03  00                 	db	low _do_I2C_SEND_ADR_READ
   145  000F04  15                 	db	high _do_I2C_SEND_ADR_READ
   146  000F05  F2                 	db	low _do_I2C_SEND_ADR_WRITE
   147  000F06  14                 	db	high _do_I2C_SEND_ADR_WRITE
   148  000F07  26                 	db	low _do_I2C_TX
   149  000F08  10                 	db	high _do_I2C_TX
   150  000F09  22                 	db	low _do_I2C_RX
   151  000F0A  11                 	db	high _do_I2C_RX
   152  000F0B  58                 	db	low _do_I2C_RCEN
   153  000F0C  15                 	db	high _do_I2C_RCEN
   154  000F0D  92                 	db	low _do_I2C_TX_EMPTY
   155  000F0E  12                 	db	high _do_I2C_TX_EMPTY
   156  000F0F  B0                 	db	low _do_I2C_SEND_RESTART_READ
   157  000F10  15                 	db	high _do_I2C_SEND_RESTART_READ
   158  000F11  A8                 	db	low _do_I2C_SEND_RESTART_WRITE
   159  000F12  15                 	db	high _do_I2C_SEND_RESTART_WRITE
   160  000F13  A0                 	db	low _do_I2C_SEND_RESTART
   161  000F14  15                 	db	high _do_I2C_SEND_RESTART
   162  000F15  98                 	db	low _do_I2C_SEND_STOP
   163  000F16  15                 	db	high _do_I2C_SEND_STOP
   164  000F17  90                 	db	low _do_I2C_DO_ACK
   165  000F18  15                 	db	high _do_I2C_DO_ACK
   166  000F19  88                 	db	low _do_I2C_DO_NACK_STOP
   167  000F1A  15                 	db	high _do_I2C_DO_NACK_STOP
   168  000F1B  80                 	db	low _do_I2C_DO_NACK_RESTART
   169  000F1C  15                 	db	high _do_I2C_DO_NACK_RESTART
   170  000F1D  0E                 	db	low _do_I2C_RESET
   171  000F1E  15                 	db	high _do_I2C_RESET
   172  000F1F  E2                 	db	low _do_I2C_DO_ADDRESS_NACK
   173  000F20  12                 	db	high _do_I2C_DO_ADDRESS_NACK
   174  000F21                     __end_of_fsmStateTable:
   175                           	opt callstack 0
   176  000F21                     _spiMaster:
   177                           	opt callstack 0
   178  000F21  00                 	db	0
   179  000F22  00                 	db	0
   180  000F23  00                 	db	0
   181  000F24  00                 	db	0
   182  000F25  00                 	db	0
   183  000F26  00                 	db	0
   184  000F27  00                 	db	0
   185  000F28  00                 	db	0
   186  000F29  00                 	db	0
   187  000F2A  00                 	db	0
   188  000F2B  00                 	db	0
   189  000F2C  00                 	db	0
   190  000F2D  00                 	db	0
   191  000F2E  00                 	db	0
   192  000F2F  00                 	db	0
   193  000F30  00                 	db	0
   194  000F31  00                 	db	0
   195  000F32  00                 	db	0
   196  000F33  00                 	db	0
   197  000F34  00                 	db	0
   198  000F35                     __end_of_spiMaster:
   199                           	opt callstack 0
   200  000F35                     _spi2_configuration:
   201                           	opt callstack 0
   202  000F35  0A                 	db	10
   203  000F36  40                 	db	64
   204  000F37  9F                 	db	159
   205  000F38  00                 	db	0
   206  000F39  0A                 	db	10
   207  000F3A  40                 	db	64
   208  000F3B  7F                 	db	127
   209  000F3C  00                 	db	0
   210  000F3D                     __end_of_spi2_configuration:
   211                           	opt callstack 0
   212  000F3D                     _spi1_configuration:
   213                           	opt callstack 0
   214  000F3D  0A                 	db	10
   215  000F3E  40                 	db	64
   216  000F3F  7F                 	db	127
   217  000F40  00                 	db	0
   218  000F41                     __end_of_spi1_configuration:
   219                           	opt callstack 0
   220  000F41  00                 	db	0	; dummy byte at the end
   221  0000                     
   222                           	psect	nvCOMRAM
   223  000041                     __pnvCOMRAM:
   224                           	opt callstack 0
   225  000041                     _IOCAF4_InterruptHandler:
   226                           	opt callstack 0
   227  000041                     	ds	2
   228  000043                     _IOCAF3_InterruptHandler:
   229                           	opt callstack 0
   230  000043                     	ds	2
   231  000045                     _IOCAF2_InterruptHandler:
   232                           	opt callstack 0
   233  000045                     	ds	2
   234  000047                     _IOCAF1_InterruptHandler:
   235                           	opt callstack 0
   236  000047                     	ds	2
   237  000049                     _INT0_InterruptHandler:
   238                           	opt callstack 0
   239  000049                     	ds	2
   240  00004B                     _TMR2_InterruptHandler:
   241                           	opt callstack 0
   242  00004B                     	ds	2
   243  0000                     _SSP2BUF	set	3730
   244  0000                     _SSP2ADD	set	3731
   245  0000                     _SSP2CON2	set	3735
   246  0000                     _SSP2CON1	set	3734
   247  0000                     _SSP2STAT	set	3733
   248  0000                     _SSP2CON1bits	set	3734
   249  0000                     _SSP2CLKPPS	set	3727
   250  0000                     _SSP1DATPPS	set	3768
   251  0000                     _RB4PPS	set	3827
   252  0000                     _RC4PPS	set	3835
   253  0000                     _RB5PPS	set	3828
   254  0000                     _INT0PPS	set	3745
   255  0000                     _RB1PPS	set	3824
   256  0000                     _SSP1CLKPPS	set	3767
   257  0000                     _SSP2DATPPS	set	3728
   258  0000                     _PMD5	set	3814
   259  0000                     _PMD4	set	3813
   260  0000                     _PMD3	set	3812
   261  0000                     _PMD2	set	3811
   262  0000                     _PMD1	set	3810
   263  0000                     _PMD0	set	3809
   264  0000                     _OSCTUNE	set	3805
   265  0000                     _OSCFRQ	set	3806
   266  0000                     _OSCEN	set	3804
   267  0000                     _OSCCON3	set	3802
   268  0000                     _OSCCON1	set	3800
   269  0000                     _PIR3bits	set	3789
   270  0000                     _PIE3bits	set	3781
   271  0000                     _PIE0bits	set	3778
   272  0000                     _PIR0bits	set	3786
   273  0000                     _PIE4bits	set	3782
   274  0000                     _PIR4bits	set	3790
   275  0000                     _IOCAPbits	set	3852
   276  0000                     _IOCANbits	set	3851
   277  0000                     _IOCAFbits	set	3850
   278  0000                     _SLRCONE	set	3883
   279  0000                     _SLRCOND	set	3875
   280  0000                     _SLRCONC	set	3870
   281  0000                     _SLRCONB	set	3862
   282  0000                     _SLRCONA	set	3854
   283  0000                     _ODCOND	set	3876
   284  0000                     _ODCONC	set	3871
   285  0000                     _ODCONB	set	3863
   286  0000                     _ODCONA	set	3855
   287  0000                     _ODCONE	set	3884
   288  0000                     _WPUC	set	3872
   289  0000                     _WPUA	set	3856
   290  0000                     _WPUB	set	3864
   291  0000                     _WPUE	set	3885
   292  0000                     _WPUD	set	3877
   293  0000                     _ANSELA	set	3857
   294  0000                     _ANSELE	set	3886
   295  0000                     _ANSELB	set	3865
   296  0000                     _ANSELC	set	3873
   297  0000                     _ANSELD	set	3878
   298  0000                     _TRISBbits	set	3977
   299  0000                     _LATCbits	set	3973
   300  0000                     _SSP1STATbits	set	3989
   301  0000                     _SSP1MSK	set	3988
   302  0000                     _SSP1BUF	set	3986
   303  0000                     _SSP1CON2bits	set	3991
   304  0000                     _SSP1ADD	set	3987
   305  0000                     _SSP1CON2	set	3991
   306  0000                     _SSP1CON1	set	3990
   307  0000                     _SSP1STAT	set	3989
   308  0000                     _SSP1CON1bits	set	3990
   309  0000                     _TRISD	set	3979
   310  0000                     _TRISC	set	3978
   311  0000                     _TRISB	set	3977
   312  0000                     _TRISA	set	3976
   313  0000                     _TRISE	set	3980
   314  0000                     _LATC	set	3973
   315  0000                     _LATB	set	3972
   316  0000                     _LATA	set	3971
   317  0000                     _LATD	set	3974
   318  0000                     _LATE	set	3975
   319  0000                     _INTCONbits	set	4082
   320  0000                     _PR2	set	4028
   321  0000                     _TMR2	set	4027
   322  0000                     _T2CONbits	set	4029
   323  0000                     _T2RSTbits	set	4032
   324  0000                     _T2HLTbits	set	4030
   325  0000                     _T2CON	set	4029
   326  0000                     _T2TMR	set	4027
   327  0000                     _T2PR	set	4028
   328  0000                     _T2RST	set	4032
   329  0000                     _T2HLT	set	4030
   330  0000                     _T2CLKCON	set	4031
   331                           
   332                           ; #config settings
   333  0000                     
   334                           	psect	cinit
   335  0014CC                     __pcinit:
   336                           	opt callstack 0
   337  0014CC                     start_initialization:
   338                           	opt callstack 0
   339  0014CC                     __initialization:
   340                           	opt callstack 0
   341                           
   342                           ; Clear objects allocated to COMRAM (44 bytes)
   343  0014CC  EE00  F001         	lfsr	0,__pbssCOMRAM
   344  0014D0  0E2C               	movlw	44
   345  0014D2                     clear_0:
   346  0014D2  6AEE               	clrf	postinc0,c
   347  0014D4  06E8               	decf	wreg,f,c
   348  0014D6  E1FD               	bnz	clear_0
   349  0014D8                     end_of_initialization:
   350                           	opt callstack 0
   351  0014D8                     __end_of__initialization:
   352                           	opt callstack 0
   353  0014D8  904D               	bcf	int$flags,0,c	;clear compiler interrupt flag (level 1)
   354  0014DA  924D               	bcf	int$flags,1,c	;clear compiler interrupt flag (level 2)
   355  0014DC  0100               	movlb	0
   356  0014DE  EFC7  F008         	goto	_main	;jump to C main() function
   357                           
   358                           	psect	bssCOMRAM
   359  000001                     __pbssCOMRAM:
   360                           	opt callstack 0
   361  000001                     _i2c_status:
   362                           	opt callstack 0
   363  000001                     	ds	36
   364  000025                     _spi2_interruptHandler:
   365                           	opt callstack 0
   366  000025                     	ds	2
   367  000027                     _spi1_interruptHandler:
   368                           	opt callstack 0
   369  000027                     	ds	2
   370  000029                     _i2c1_driver_i2cISR:
   371                           	opt callstack 0
   372  000029                     	ds	2
   373  00002B                     _i2c1_driver_busCollisionISR:
   374                           	opt callstack 0
   375  00002B                     	ds	2
   376                           
   377                           	psect	cstackBANK0
   378  000060                     __pcstackBANK0:
   379                           	opt callstack 0
   380  000060                     Delay_Xms@i:
   381                           	opt callstack 0
   382                           
   383                           ; 4 bytes @ 0x0
   384  000060                     	ds	4
   385  000064                     ledBlink_RGB@delay:
   386                           	opt callstack 0
   387                           
   388                           ; 4 bytes @ 0x4
   389  000064                     	ds	4
   390                           
   391                           	psect	cstackCOMRAM
   392  00002D                     __pcstackCOMRAM:
   393                           	opt callstack 0
   394  00002D                     ??_i2c1_driver_isNACK:
   395  00002D                     i2c1_driver_TXData@d:
   396                           	opt callstack 0
   397  00002D                     returnReset@p:
   398                           	opt callstack 0
   399                           
   400                           ; 2 bytes @ 0x0
   401  00002D                     	ds	1
   402  00002E                     _do_I2C_TX$306:
   403                           	opt callstack 0
   404                           
   405                           ; 2 bytes @ 0x1
   406  00002E                     	ds	1
   407  00002F                     
   408                           ; 1 bytes @ 0x2
   409  00002F                     	ds	1
   410  000030                     ??_i2c_ISR:
   411                           
   412                           ; 1 bytes @ 0x3
   413  000030                     	ds	2
   414  000032                     ??_INTERRUPT_InterruptManager:
   415                           
   416                           ; 1 bytes @ 0x5
   417  000032                     	ds	10
   418  00003C                     SetLed@G:
   419                           	opt callstack 0
   420  00003C                     TMR2_SetInterruptHandler@InterruptHandler:
   421                           	opt callstack 0
   422  00003C                     INT0_SetInterruptHandler@InterruptHandler:
   423                           	opt callstack 0
   424  00003C                     IOCAF1_SetInterruptHandler@InterruptHandler:
   425                           	opt callstack 0
   426  00003C                     IOCAF2_SetInterruptHandler@InterruptHandler:
   427                           	opt callstack 0
   428  00003C                     IOCAF3_SetInterruptHandler@InterruptHandler:
   429                           	opt callstack 0
   430  00003C                     IOCAF4_SetInterruptHandler@InterruptHandler:
   431                           	opt callstack 0
   432  00003C                     Delay_Xms@delay:
   433                           	opt callstack 0
   434                           
   435                           ; 4 bytes @ 0xF
   436  00003C                     	ds	1
   437  00003D                     SetLed@B:
   438                           	opt callstack 0
   439                           
   440                           ; 1 bytes @ 0x10
   441  00003D                     	ds	1
   442  00003E                     SetLed@R:
   443                           	opt callstack 0
   444                           
   445                           ; 1 bytes @ 0x11
   446  00003E                     	ds	2
   447  000040                     ??_Delay_Xms:
   448                           
   449                           ; 1 bytes @ 0x13
   450  000040                     	ds	1
   451  000041                     
   452                           ; 1 bytes @ 0x14
   453 ;;
   454 ;;Main: autosize = 0, tempsize = 0, incstack = 0, save=0
   455 ;;
   456 ;; *************** function _main *****************
   457 ;; Defined at:
   458 ;;		line 57 in file "main.c"
   459 ;; Parameters:    Size  Location     Type
   460 ;;		None
   461 ;; Auto vars:     Size  Location     Type
   462 ;;		None
   463 ;; Return value:  Size  Location     Type
   464 ;;                  1    wreg      void 
   465 ;; Registers used:
   466 ;;		wreg, status,2, status,0, cstack
   467 ;; Tracked objects:
   468 ;;		On entry : 0/0
   469 ;;		On exit  : 0/0
   470 ;;		Unchanged: 0/0
   471 ;; Data sizes:     COMRAM   BANK0   BANK1   BANK2   BANK3   BANK4   BANK5   BANK6   BANK7   BANK8   BANK9  BANK10  BANK1
      +1  BANK12  BANK13  BANK14
   472 ;;      Params:         0       0       0       0       0       0       0       0       0       0       0       0       
      +0       0       0       0
   473 ;;      Locals:         0       0       0       0       0       0       0       0       0       0       0       0       
      +0       0       0       0
   474 ;;      Temps:          0       0       0       0       0       0       0       0       0       0       0       0       
      +0       0       0       0
   475 ;;      Totals:         0       0       0       0       0       0       0       0       0       0       0       0       
      +0       0       0       0
   476 ;;Total ram usage:        0 bytes
   477 ;; Hardware stack levels required when called:    8
   478 ;; This function calls:
   479 ;;		_Delay_Xms
   480 ;;		_SYSTEM_Initialize
   481 ;;		_SetLed
   482 ;;		_ledBlink_RGB
   483 ;; This function is called by:
   484 ;;		Startup code after reset
   485 ;; This function uses a non-reentrant model
   486 ;;
   487                           
   488                           	psect	text0
   489  00118E                     __ptext0:
   490                           	opt callstack 0
   491  00118E                     _main:
   492                           	opt callstack 23
   493                           
   494                           ;main.c: 60: SYSTEM_Initialize();
   495                           
   496                           ;incstack = 0
   497  00118E  EC41  F00A         	call	_SYSTEM_Initialize	;wreg free
   498                           
   499                           ;main.c: 70: (INTCONbits.GIE = 1);
   500  001192  8EF2               	bsf	4082,7,c	;volatile
   501                           
   502                           ;main.c: 73: (INTCONbits.GIE = 0);
   503  001194  9EF2               	bcf	4082,7,c	;volatile
   504                           
   505                           ;main.c: 81: ledBlink_RGB(200);
   506  001196  0EC8               	movlw	200
   507  001198  0100               	movlb	0	; () banked
   508  00119A  6F64               	movwf	ledBlink_RGB@delay& (0+255),b
   509  00119C  0E00               	movlw	0
   510  00119E  6F65               	movwf	(ledBlink_RGB@delay+1)& (0+255),b
   511  0011A0  0E00               	movlw	0
   512  0011A2  6F66               	movwf	(ledBlink_RGB@delay+2)& (0+255),b
   513  0011A4  0E00               	movlw	0
   514  0011A6  6F67               	movwf	(ledBlink_RGB@delay+3)& (0+255),b
   515  0011A8  EC56  F008         	call	_ledBlink_RGB	;wreg free
   516  0011AC                     l3022:
   517                           
   518                           ;main.c: 84: {;main.c: 85: SetLed(0,1,0);
   519  0011AC  0E01               	movlw	1
   520  0011AE  6E3C               	movwf	SetLed@G,c
   521  0011B0  0E00               	movlw	0
   522  0011B2  6E3D               	movwf	SetLed@B,c
   523  0011B4  0E00               	movlw	0
   524  0011B6  ECA7  F009         	call	_SetLed
   525                           
   526                           ;main.c: 86: Delay_Xms(100);
   527  0011BA  0E64               	movlw	100
   528  0011BC  6E3C               	movwf	Delay_Xms@delay,c
   529  0011BE  0E00               	movlw	0
   530  0011C0  6E3D               	movwf	Delay_Xms@delay+1,c
   531  0011C2  0E00               	movlw	0
   532  0011C4  6E3E               	movwf	Delay_Xms@delay+2,c
   533  0011C6  0E00               	movlw	0
   534  0011C8  6E3F               	movwf	Delay_Xms@delay+3,c
   535  0011CA  ECF9  F008         	call	_Delay_Xms	;wreg free
   536                           
   537                           ;main.c: 87: SetLed(0,0,0);
   538  0011CE  0E00               	movlw	0
   539  0011D0  6E3C               	movwf	SetLed@G,c
   540  0011D2  0E00               	movlw	0
   541  0011D4  6E3D               	movwf	SetLed@B,c
   542  0011D6  0E00               	movlw	0
   543  0011D8  ECA7  F009         	call	_SetLed
   544                           
   545                           ;main.c: 88: Delay_Xms(900);
   546  0011DC  0E84               	movlw	132
   547  0011DE  6E3C               	movwf	Delay_Xms@delay,c
   548  0011E0  0E03               	movlw	3
   549  0011E2  6E3D               	movwf	Delay_Xms@delay+1,c
   550  0011E4  0E00               	movlw	0
   551  0011E6  6E3E               	movwf	Delay_Xms@delay+2,c
   552  0011E8  0E00               	movlw	0
   553  0011EA  6E3F               	movwf	Delay_Xms@delay+3,c
   554  0011EC  ECF9  F008         	call	_Delay_Xms	;wreg free
   555  0011F0  D7DD               	goto	l3022
   556  0011F2                     __end_of_main:
   557                           	opt callstack 0
   558                           
   559 ;; *************** function _ledBlink_RGB *****************
   560 ;; Defined at:
   561 ;;		line 47 in file "main.c"
   562 ;; Parameters:    Size  Location     Type
   563 ;;  delay           4    4[BANK0 ] long 
   564 ;; Auto vars:     Size  Location     Type
   565 ;;		None
   566 ;; Return value:  Size  Location     Type
   567 ;;                  1    wreg      void 
   568 ;; Registers used:
   569 ;;		wreg, status,2, status,0, cstack
   570 ;; Tracked objects:
   571 ;;		On entry : 0/0
   572 ;;		On exit  : 0/0
   573 ;;		Unchanged: 0/0
   574 ;; Data sizes:     COMRAM   BANK0   BANK1   BANK2   BANK3   BANK4   BANK5   BANK6   BANK7   BANK8   BANK9  BANK10  BANK1
      +1  BANK12  BANK13  BANK14
   575 ;;      Params:         0       4       0       0       0       0       0       0       0       0       0       0       
      +0       0       0       0
   576 ;;      Locals:         0       0       0       0       0       0       0       0       0       0       0       0       
      +0       0       0       0
   577 ;;      Temps:          0       0       0       0       0       0       0       0       0       0       0       0       
      +0       0       0       0
   578 ;;      Totals:         0       4       0       0       0       0       0       0       0       0       0       0       
      +0       0       0       0
   579 ;;Total ram usage:        4 bytes
   580 ;; Hardware stack levels used:    1
   581 ;; Hardware stack levels required when called:    6
   582 ;; This function calls:
   583 ;;		_Delay_Xms
   584 ;;		_SetLed
   585 ;; This function is called by:
   586 ;;		_main
   587 ;; This function uses a non-reentrant model
   588 ;;
   589                           
   590                           	psect	text1
   591  0010AC                     __ptext1:
   592                           	opt callstack 0
   593  0010AC                     _ledBlink_RGB:
   594                           	opt callstack 24
   595                           
   596                           ;main.c: 48: SetLed(1, 0, 0);
   597                           
   598                           ;incstack = 0
   599  0010AC  0E00               	movlw	0
   600  0010AE  6E3C               	movwf	SetLed@G,c
   601  0010B0  0E00               	movlw	0
   602  0010B2  6E3D               	movwf	SetLed@B,c
   603  0010B4  0E01               	movlw	1
   604  0010B6  ECA7  F009         	call	_SetLed
   605                           
   606                           ;main.c: 49: Delay_Xms(delay);
   607  0010BA  C064  F03C         	movff	ledBlink_RGB@delay,Delay_Xms@delay
   608  0010BE  C065  F03D         	movff	ledBlink_RGB@delay+1,Delay_Xms@delay+1
   609  0010C2  C066  F03E         	movff	ledBlink_RGB@delay+2,Delay_Xms@delay+2
   610  0010C6  C067  F03F         	movff	ledBlink_RGB@delay+3,Delay_Xms@delay+3
   611  0010CA  ECF9  F008         	call	_Delay_Xms	;wreg free
   612                           
   613                           ;main.c: 50: SetLed(0, 1, 0);
   614  0010CE  0E01               	movlw	1
   615  0010D0  6E3C               	movwf	SetLed@G,c
   616  0010D2  0E00               	movlw	0
   617  0010D4  6E3D               	movwf	SetLed@B,c
   618  0010D6  0E00               	movlw	0
   619  0010D8  ECA7  F009         	call	_SetLed
   620                           
   621                           ;main.c: 51: Delay_Xms(delay);
   622  0010DC  C064  F03C         	movff	ledBlink_RGB@delay,Delay_Xms@delay
   623  0010E0  C065  F03D         	movff	ledBlink_RGB@delay+1,Delay_Xms@delay+1
   624  0010E4  C066  F03E         	movff	ledBlink_RGB@delay+2,Delay_Xms@delay+2
   625  0010E8  C067  F03F         	movff	ledBlink_RGB@delay+3,Delay_Xms@delay+3
   626  0010EC  ECF9  F008         	call	_Delay_Xms	;wreg free
   627                           
   628                           ;main.c: 52: SetLed(0, 0, 1);
   629  0010F0  0E00               	movlw	0
   630  0010F2  6E3C               	movwf	SetLed@G,c
   631  0010F4  0E01               	movlw	1
   632  0010F6  6E3D               	movwf	SetLed@B,c
   633  0010F8  0E00               	movlw	0
   634  0010FA  ECA7  F009         	call	_SetLed
   635                           
   636                           ;main.c: 53: Delay_Xms(delay);
   637  0010FE  C064  F03C         	movff	ledBlink_RGB@delay,Delay_Xms@delay
   638  001102  C065  F03D         	movff	ledBlink_RGB@delay+1,Delay_Xms@delay+1
   639  001106  C066  F03E         	movff	ledBlink_RGB@delay+2,Delay_Xms@delay+2
   640  00110A  C067  F03F         	movff	ledBlink_RGB@delay+3,Delay_Xms@delay+3
   641  00110E  ECF9  F008         	call	_Delay_Xms	;wreg free
   642                           
   643                           ;main.c: 54: SetLed(0, 0, 0);
   644  001112  0E00               	movlw	0
   645  001114  6E3C               	movwf	SetLed@G,c
   646  001116  0E00               	movlw	0
   647  001118  6E3D               	movwf	SetLed@B,c
   648  00111A  0E00               	movlw	0
   649  00111C  ECA7  F009         	call	_SetLed
   650  001120  0012               	return		;funcret
   651  001122                     __end_of_ledBlink_RGB:
   652                           	opt callstack 0
   653                           
   654 ;; *************** function _SetLed *****************
   655 ;; Defined at:
   656 ;;		line 16 in file "main.c"
   657 ;; Parameters:    Size  Location     Type
   658 ;;  R               1    wreg     unsigned char 
   659 ;;  G               1   15[COMRAM] unsigned char 
   660 ;;  B               1   16[COMRAM] unsigned char 
   661 ;; Auto vars:     Size  Location     Type
   662 ;;  R               1   17[COMRAM] unsigned char 
   663 ;; Return value:  Size  Location     Type
   664 ;;                  1    wreg      void 
   665 ;; Registers used:
   666 ;;		wreg, status,2
   667 ;; Tracked objects:
   668 ;;		On entry : 0/0
   669 ;;		On exit  : 0/0
   670 ;;		Unchanged: 0/0
   671 ;; Data sizes:     COMRAM   BANK0   BANK1   BANK2   BANK3   BANK4   BANK5   BANK6   BANK7   BANK8   BANK9  BANK10  BANK1
      +1  BANK12  BANK13  BANK14
   672 ;;      Params:         2       0       0       0       0       0       0       0       0       0       0       0       
      +0       0       0       0
   673 ;;      Locals:         1       0       0       0       0       0       0       0       0       0       0       0       
      +0       0       0       0
   674 ;;      Temps:          0       0       0       0       0       0       0       0       0       0       0       0       
      +0       0       0       0
   675 ;;      Totals:         3       0       0       0       0       0       0       0       0       0       0       0       
      +0       0       0       0
   676 ;;Total ram usage:        3 bytes
   677 ;; Hardware stack levels used:    1
   678 ;; Hardware stack levels required when called:    5
   679 ;; This function calls:
   680 ;;		Nothing
   681 ;; This function is called by:
   682 ;;		_ledBlink_RGB
   683 ;;		_main
   684 ;;		_spi_isr
   685 ;; This function uses a non-reentrant model
   686 ;;
   687                           
   688                           	psect	text2
   689  00134E                     __ptext2:
   690                           	opt callstack 0
   691  00134E                     _SetLed:
   692                           	opt callstack 24
   693                           
   694                           ;incstack = 0
   695                           ;SetLed@R stored from wreg
   696  00134E  6E3E               	movwf	SetLed@R,c
   697                           
   698                           ;main.c: 17: if(R)
   699  001350  503E               	movf	SetLed@R,w,c
   700  001352  B4D8               	btfsc	status,2,c
   701  001354  D002               	goto	l757
   702                           
   703                           ;main.c: 18: do { LATCbits.LATC2 = 0; } while(0);
   704  001356  9485               	bcf	3973,2,c	;volatile
   705  001358  D001               	goto	l2800
   706  00135A                     l757:
   707  00135A  8485               	bsf	3973,2,c	;volatile
   708  00135C                     l2800:
   709                           
   710                           ;main.c: 22: if(G)
   711  00135C  503C               	movf	SetLed@G,w,c
   712  00135E  B4D8               	btfsc	status,2,c
   713  001360  D002               	goto	l763
   714                           
   715                           ;main.c: 23: do { LATCbits.LATC1 = 0; } while(0);
   716  001362  9285               	bcf	3973,1,c	;volatile
   717  001364  D001               	goto	l2802
   718  001366                     l763:
   719  001366  8285               	bsf	3973,1,c	;volatile
   720  001368                     l2802:
   721                           
   722                           ;main.c: 27: if(B)
   723  001368  503D               	movf	SetLed@B,w,c
   724  00136A  B4D8               	btfsc	status,2,c
   725  00136C  D002               	goto	l769
   726                           
   727                           ;main.c: 28: do { LATCbits.LATC0 = 0; } while(0);
   728  00136E  9085               	bcf	3973,0,c	;volatile
   729  001370  0012               	return	
   730  001372                     l769:
   731  001372  8085               	bsf	3973,0,c	;volatile
   732  001374  0012               	return		;funcret
   733  001376                     __end_of_SetLed:
   734                           	opt callstack 0
   735                           
   736 ;; *************** function _Delay_Xms *****************
   737 ;; Defined at:
   738 ;;		line 40 in file "main.c"
   739 ;; Parameters:    Size  Location     Type
   740 ;;  delay           4   15[COMRAM] long 
   741 ;; Auto vars:     Size  Location     Type
   742 ;;  i               4    0[BANK0 ] long 
   743 ;; Return value:  Size  Location     Type
   744 ;;                  1    wreg      void 
   745 ;; Registers used:
   746 ;;		wreg, status,2, status,0
   747 ;; Tracked objects:
   748 ;;		On entry : 0/0
   749 ;;		On exit  : 0/0
   750 ;;		Unchanged: 0/0
   751 ;; Data sizes:     COMRAM   BANK0   BANK1   BANK2   BANK3   BANK4   BANK5   BANK6   BANK7   BANK8   BANK9  BANK10  BANK1
      +1  BANK12  BANK13  BANK14
   752 ;;      Params:         4       0       0       0       0       0       0       0       0       0       0       0       
      +0       0       0       0
   753 ;;      Locals:         0       4       0       0       0       0       0       0       0       0       0       0       
      +0       0       0       0
   754 ;;      Temps:          1       0       0       0       0       0       0       0       0       0       0       0       
      +0       0       0       0
   755 ;;      Totals:         5       4       0       0       0       0       0       0       0       0       0       0       
      +0       0       0       0
   756 ;;Total ram usage:        9 bytes
   757 ;; Hardware stack levels used:    1
   758 ;; Hardware stack levels required when called:    5
   759 ;; This function calls:
   760 ;;		Nothing
   761 ;; This function is called by:
   762 ;;		_ledBlink_RGB
   763 ;;		_main
   764 ;;		_spi_isr
   765 ;; This function uses a non-reentrant model
   766 ;;
   767                           
   768                           	psect	text3
   769  0011F2                     __ptext3:
   770                           	opt callstack 0
   771  0011F2                     _Delay_Xms:
   772                           	opt callstack 24
   773                           
   774                           ;main.c: 41: for(long i = 0; i < delay; i++) {
   775                           
   776                           ;incstack = 0
   777  0011F2  0E00               	movlw	0
   778  0011F4  0100               	movlb	0	; () banked
   779  0011F6  6F60               	movwf	Delay_Xms@i& (0+255),b
   780  0011F8  0E00               	movlw	0
   781  0011FA  6F61               	movwf	(Delay_Xms@i+1)& (0+255),b
   782  0011FC  0E00               	movlw	0
   783  0011FE  6F62               	movwf	(Delay_Xms@i+2)& (0+255),b
   784  001200  0E00               	movlw	0
   785  001202  6F63               	movwf	(Delay_Xms@i+3)& (0+255),b
   786  001204  D00F               	goto	l2998
   787  001206                     l2994:
   788                           
   789                           ; BSR set to: 0
   790                           ;main.c: 42: _delay((unsigned long)((1)*(64000000/4000.0)));
   791  001206  0E15               	movlw	21
   792  001208  6E40               	movwf	??_Delay_Xms& (0+255),c
   793  00120A  0EC6               	movlw	198
   794  00120C                     u1057:
   795  00120C  2EE8               	decfsz	wreg,f,c
   796  00120E  D7FE               	bra	u1057
   797  001210  2E40               	decfsz	??_Delay_Xms& (0+255),f,c
   798  001212  D7FC               	bra	u1057
   799  001214  D000               	nop2	
   800  001216  0E01               	movlw	1
   801  001218  0100               	movlb	0	; () banked
   802  00121A  2760               	addwf	Delay_Xms@i& (0+255),f,b
   803  00121C  0E00               	movlw	0
   804  00121E  2361               	addwfc	(Delay_Xms@i+1)& (0+255),f,b
   805  001220  2362               	addwfc	(Delay_Xms@i+2)& (0+255),f,b
   806  001222  2363               	addwfc	(Delay_Xms@i+3)& (0+255),f,b
   807  001224                     l2998:
   808                           
   809                           ; BSR set to: 0
   810  001224  503C               	movf	Delay_Xms@delay,w,c
   811  001226  5D60               	subwf	Delay_Xms@i& (0+255),w,b
   812  001228  503D               	movf	Delay_Xms@delay+1,w,c
   813  00122A  5961               	subwfb	(Delay_Xms@i+1)& (0+255),w,b
   814  00122C  503E               	movf	Delay_Xms@delay+2,w,c
   815  00122E  5962               	subwfb	(Delay_Xms@i+2)& (0+255),w,b
   816  001230  5163               	movf	(Delay_Xms@i+3)& (0+255),w,b
   817  001232  0A80               	xorlw	128
   818  001234  6E40               	movwf	??_Delay_Xms& (0+255),c
   819  001236  503F               	movf	Delay_Xms@delay+3,w,c
   820  001238  0A80               	xorlw	128
   821  00123A  5840               	subwfb	??_Delay_Xms& (0+255),w,c
   822  00123C  B0D8               	btfsc	status,0,c
   823  00123E  0012               	return	
   824  001240  D7E2               	goto	l2994
   825  001242                     __end_of_Delay_Xms:
   826                           	opt callstack 0
   827                           
   828 ;; *************** function _SYSTEM_Initialize *****************
   829 ;; Defined at:
   830 ;;		line 50 in file "mcc_generated_files/mcc.c"
   831 ;; Parameters:    Size  Location     Type
   832 ;;		None
   833 ;; Auto vars:     Size  Location     Type
   834 ;;		None
   835 ;; Return value:  Size  Location     Type
   836 ;;                  1    wreg      void 
   837 ;; Registers used:
   838 ;;		wreg, status,2, status,0, cstack
   839 ;; Tracked objects:
   840 ;;		On entry : 0/0
   841 ;;		On exit  : 0/0
   842 ;;		Unchanged: 0/0
   843 ;; Data sizes:     COMRAM   BANK0   BANK1   BANK2   BANK3   BANK4   BANK5   BANK6   BANK7   BANK8   BANK9  BANK10  BANK1
      +1  BANK12  BANK13  BANK14
   844 ;;      Params:         0       0       0       0       0       0       0       0       0       0       0       0       
      +0       0       0       0
   845 ;;      Locals:         0       0       0       0       0       0       0       0       0       0       0       0       
      +0       0       0       0
   846 ;;      Temps:          0       0       0       0       0       0       0       0       0       0       0       0       
      +0       0       0       0
   847 ;;      Totals:         0       0       0       0       0       0       0       0       0       0       0       0       
      +0       0       0       0
   848 ;;Total ram usage:        0 bytes
   849 ;; Hardware stack levels used:    1
   850 ;; Hardware stack levels required when called:    7
   851 ;; This function calls:
   852 ;;		_EXT_INT_Initialize
   853 ;;		_INTERRUPT_Initialize
   854 ;;		_OSCILLATOR_Initialize
   855 ;;		_PIN_MANAGER_Initialize
   856 ;;		_PMD_Initialize
   857 ;;		_TMR2_Initialize
   858 ;; This function is called by:
   859 ;;		_main
   860 ;; This function uses a non-reentrant model
   861 ;;
   862                           
   863                           	psect	text4
   864  001482                     __ptext4:
   865                           	opt callstack 0
   866  001482                     _SYSTEM_Initialize:
   867                           	opt callstack 23
   868                           
   869                           ;mcc.c: 52: INTERRUPT_Initialize();
   870                           
   871                           ; BSR set to: 0
   872                           ;incstack = 0
   873  001482  ECF2  F00A         	call	_INTERRUPT_Initialize	;wreg free
   874                           
   875                           ;mcc.c: 53: PMD_Initialize();
   876  001486  EC33  F00A         	call	_PMD_Initialize	;wreg free
   877                           
   878                           ;mcc.c: 54: PIN_MANAGER_Initialize();
   879  00148A  ECA1  F007         	call	_PIN_MANAGER_Initialize	;wreg free
   880                           
   881                           ;mcc.c: 55: OSCILLATOR_Initialize();
   882  00148E  EC4E  F00A         	call	_OSCILLATOR_Initialize	;wreg free
   883                           
   884                           ;mcc.c: 56: TMR2_Initialize();
   885  001492  EC91  F009         	call	_TMR2_Initialize	;wreg free
   886                           
   887                           ;mcc.c: 57: EXT_INT_Initialize();
   888  001496  EC5A  F00A         	call	_EXT_INT_Initialize	;wreg free
   889  00149A  0012               	return		;funcret
   890  00149C                     __end_of_SYSTEM_Initialize:
   891                           	opt callstack 0
   892                           
   893 ;; *************** function _TMR2_Initialize *****************
   894 ;; Defined at:
   895 ;;		line 64 in file "mcc_generated_files/tmr2.c"
   896 ;; Parameters:    Size  Location     Type
   897 ;;		None
   898 ;; Auto vars:     Size  Location     Type
   899 ;;		None
   900 ;; Return value:  Size  Location     Type
   901 ;;                  1    wreg      void 
   902 ;; Registers used:
   903 ;;		wreg, status,2, status,0, cstack
   904 ;; Tracked objects:
   905 ;;		On entry : 0/0
   906 ;;		On exit  : 0/0
   907 ;;		Unchanged: 0/0
   908 ;; Data sizes:     COMRAM   BANK0   BANK1   BANK2   BANK3   BANK4   BANK5   BANK6   BANK7   BANK8   BANK9  BANK10  BANK1
      +1  BANK12  BANK13  BANK14
   909 ;;      Params:         0       0       0       0       0       0       0       0       0       0       0       0       
      +0       0       0       0
   910 ;;      Locals:         0       0       0       0       0       0       0       0       0       0       0       0       
      +0       0       0       0
   911 ;;      Temps:          0       0       0       0       0       0       0       0       0       0       0       0       
      +0       0       0       0
   912 ;;      Totals:         0       0       0       0       0       0       0       0       0       0       0       0       
      +0       0       0       0
   913 ;;Total ram usage:        0 bytes
   914 ;; Hardware stack levels used:    1
   915 ;; Hardware stack levels required when called:    6
   916 ;; This function calls:
   917 ;;		_TMR2_SetInterruptHandler
   918 ;; This function is called by:
   919 ;;		_SYSTEM_Initialize
   920 ;; This function uses a non-reentrant model
   921 ;;
   922                           
   923                           	psect	text5
   924  001322                     __ptext5:
   925                           	opt callstack 0
   926  001322                     _TMR2_Initialize:
   927                           	opt callstack 23
   928                           
   929                           ;tmr2.c: 69: T2CLKCON = 0x04;
   930                           
   931                           ;incstack = 0
   932  001322  0E04               	movlw	4
   933  001324  6EBF               	movwf	4031,c	;volatile
   934                           
   935                           ;tmr2.c: 72: T2HLT = 0x00;
   936  001326  0E00               	movlw	0
   937  001328  6EBE               	movwf	4030,c	;volatile
   938                           
   939                           ;tmr2.c: 75: T2RST = 0x00;
   940  00132A  0E00               	movlw	0
   941  00132C  6EC0               	movwf	4032,c	;volatile
   942                           
   943                           ;tmr2.c: 78: T2PR = 0x1E;
   944  00132E  0E1E               	movlw	30
   945  001330  6EBC               	movwf	4028,c	;volatile
   946                           
   947                           ;tmr2.c: 81: T2TMR = 0x00;
   948  001332  0E00               	movlw	0
   949  001334  6EBB               	movwf	4027,c	;volatile
   950                           
   951                           ;tmr2.c: 84: PIR4bits.TMR2IF = 0;
   952  001336  010E               	movlb	14	; () banked
   953  001338  93CE               	bcf	206,1,b	;volatile
   954                           
   955                           ; BSR set to: 14
   956                           ;tmr2.c: 87: PIE4bits.TMR2IE = 1;
   957  00133A  83C6               	bsf	198,1,b	;volatile
   958                           
   959                           ; BSR set to: 14
   960                           ;tmr2.c: 90: TMR2_SetInterruptHandler(TMR2_DefaultInterruptHandler);
   961  00133C  0E02               	movlw	low _TMR2_DefaultInterruptHandler
   962  00133E  6E3C               	movwf	TMR2_SetInterruptHandler@InterruptHandler,c
   963  001340  0E16               	movlw	high _TMR2_DefaultInterruptHandler
   964  001342  6E3D               	movwf	TMR2_SetInterruptHandler@InterruptHandler+1,c
   965  001344  EC8E  F00A         	call	_TMR2_SetInterruptHandler	;wreg free
   966                           
   967                           ;tmr2.c: 93: T2CON = 0x89;
   968  001348  0E89               	movlw	137
   969  00134A  6EBD               	movwf	4029,c	;volatile
   970  00134C  0012               	return		;funcret
   971  00134E                     __end_of_TMR2_Initialize:
   972                           	opt callstack 0
   973                           
   974 ;; *************** function _TMR2_SetInterruptHandler *****************
   975 ;; Defined at:
   976 ;;		line 186 in file "mcc_generated_files/tmr2.c"
   977 ;; Parameters:    Size  Location     Type
   978 ;;  InterruptHan    2   15[COMRAM] PTR FTN()void 
   979 ;;		 -> TMR2_DefaultInterruptHandler(1), 
   980 ;; Auto vars:     Size  Location     Type
   981 ;;		None
   982 ;; Return value:  Size  Location     Type
   983 ;;                  1    wreg      void 
   984 ;; Registers used:
   985 ;;		wreg, status,2, status,0
   986 ;; Tracked objects:
   987 ;;		On entry : 0/0
   988 ;;		On exit  : 0/0
   989 ;;		Unchanged: 0/0
   990 ;; Data sizes:     COMRAM   BANK0   BANK1   BANK2   BANK3   BANK4   BANK5   BANK6   BANK7   BANK8   BANK9  BANK10  BANK1
      +1  BANK12  BANK13  BANK14
   991 ;;      Params:         2       0       0       0       0       0       0       0       0       0       0       0       
      +0       0       0       0
   992 ;;      Locals:         0       0       0       0       0       0       0       0       0       0       0       0       
      +0       0       0       0
   993 ;;      Temps:          0       0       0       0       0       0       0       0       0       0       0       0       
      +0       0       0       0
   994 ;;      Totals:         2       0       0       0       0       0       0       0       0       0       0       0       
      +0       0       0       0
   995 ;;Total ram usage:        2 bytes
   996 ;; Hardware stack levels used:    1
   997 ;; Hardware stack levels required when called:    5
   998 ;; This function calls:
   999 ;;		Nothing
  1000 ;; This function is called by:
  1001 ;;		_TMR2_Initialize
  1002 ;; This function uses a non-reentrant model
  1003 ;;
  1004                           
  1005                           	psect	text6
  1006  00151C                     __ptext6:
  1007                           	opt callstack 0
  1008  00151C                     _TMR2_SetInterruptHandler:
  1009                           	opt callstack 23
  1010                           
  1011                           ;tmr2.c: 187: TMR2_InterruptHandler = InterruptHandler;
  1012                           
  1013                           ;incstack = 0
  1014  00151C  C03C  F04B         	movff	TMR2_SetInterruptHandler@InterruptHandler,_TMR2_InterruptHandler
  1015  001520  C03D  F04C         	movff	TMR2_SetInterruptHandler@InterruptHandler+1,_TMR2_InterruptHandler+1
  1016  001524  0012               	return		;funcret
  1017  001526                     __end_of_TMR2_SetInterruptHandler:
  1018                           	opt callstack 0
  1019                           
  1020 ;; *************** function _PMD_Initialize *****************
  1021 ;; Defined at:
  1022 ;;		line 74 in file "mcc_generated_files/mcc.c"
  1023 ;; Parameters:    Size  Location     Type
  1024 ;;		None
  1025 ;; Auto vars:     Size  Location     Type
  1026 ;;		None
  1027 ;; Return value:  Size  Location     Type
  1028 ;;                  1    wreg      void 
  1029 ;; Registers used:
  1030 ;;		wreg, status,2
  1031 ;; Tracked objects:
  1032 ;;		On entry : 0/0
  1033 ;;		On exit  : 0/0
  1034 ;;		Unchanged: 0/0
  1035 ;; Data sizes:     COMRAM   BANK0   BANK1   BANK2   BANK3   BANK4   BANK5   BANK6   BANK7   BANK8   BANK9  BANK10  BANK1
      +1  BANK12  BANK13  BANK14
  1036 ;;      Params:         0       0       0       0       0       0       0       0       0       0       0       0       
      +0       0       0       0
  1037 ;;      Locals:         0       0       0       0       0       0       0       0       0       0       0       0       
      +0       0       0       0
  1038 ;;      Temps:          0       0       0       0       0       0       0       0       0       0       0       0       
      +0       0       0       0
  1039 ;;      Totals:         0       0       0       0       0       0       0       0       0       0       0       0       
      +0       0       0       0
  1040 ;;Total ram usage:        0 bytes
  1041 ;; Hardware stack levels used:    1
  1042 ;; Hardware stack levels required when called:    5
  1043 ;; This function calls:
  1044 ;;		Nothing
  1045 ;; This function is called by:
  1046 ;;		_SYSTEM_Initialize
  1047 ;; This function uses a non-reentrant model
  1048 ;;
  1049                           
  1050                           	psect	text7
  1051  001466                     __ptext7:
  1052                           	opt callstack 0
  1053  001466                     _PMD_Initialize:
  1054                           	opt callstack 24
  1055                           
  1056                           ;mcc.c: 77: PMD0 = 0x00;
  1057                           
  1058                           ;incstack = 0
  1059  001466  0E00               	movlw	0
  1060  001468  010E               	movlb	14	; () banked
  1061  00146A  6FE1               	movwf	225,b	;volatile
  1062                           
  1063                           ;mcc.c: 79: PMD1 = 0x00;
  1064  00146C  0E00               	movlw	0
  1065  00146E  6FE2               	movwf	226,b	;volatile
  1066                           
  1067                           ;mcc.c: 81: PMD2 = 0x00;
  1068  001470  0E00               	movlw	0
  1069  001472  6FE3               	movwf	227,b	;volatile
  1070                           
  1071                           ;mcc.c: 83: PMD3 = 0x00;
  1072  001474  0E00               	movlw	0
  1073  001476  6FE4               	movwf	228,b	;volatile
  1074                           
  1075                           ;mcc.c: 85: PMD4 = 0x00;
  1076  001478  0E00               	movlw	0
  1077  00147A  6FE5               	movwf	229,b	;volatile
  1078                           
  1079                           ;mcc.c: 87: PMD5 = 0x00;
  1080  00147C  0E00               	movlw	0
  1081  00147E  6FE6               	movwf	230,b	;volatile
  1082                           
  1083                           ; BSR set to: 14
  1084  001480  0012               	return		;funcret
  1085  001482                     __end_of_PMD_Initialize:
  1086                           	opt callstack 0
  1087                           
  1088 ;; *************** function _PIN_MANAGER_Initialize *****************
  1089 ;; Defined at:
  1090 ;;		line 60 in file "mcc_generated_files/pin_manager.c"
  1091 ;; Parameters:    Size  Location     Type
  1092 ;;		None
  1093 ;; Auto vars:     Size  Location     Type
  1094 ;;		None
  1095 ;; Return value:  Size  Location     Type
  1096 ;;                  1    wreg      void 
  1097 ;; Registers used:
  1098 ;;		wreg, status,2, status,0, cstack
  1099 ;; Tracked objects:
  1100 ;;		On entry : 0/0
  1101 ;;		On exit  : 0/0
  1102 ;;		Unchanged: 0/0
  1103 ;; Data sizes:     COMRAM   BANK0   BANK1   BANK2   BANK3   BANK4   BANK5   BANK6   BANK7   BANK8   BANK9  BANK10  BANK1
      +1  BANK12  BANK13  BANK14
  1104 ;;      Params:         0       0       0       0       0       0       0       0       0       0       0       0       
      +0       0       0       0
  1105 ;;      Locals:         0       0       0       0       0       0       0       0       0       0       0       0       
      +0       0       0       0
  1106 ;;      Temps:          0       0       0       0       0       0       0       0       0       0       0       0       
      +0       0       0       0
  1107 ;;      Totals:         0       0       0       0       0       0       0       0       0       0       0       0       
      +0       0       0       0
  1108 ;;Total ram usage:        0 bytes
  1109 ;; Hardware stack levels used:    1
  1110 ;; Hardware stack levels required when called:    6
  1111 ;; This function calls:
  1112 ;;		_IOCAF1_SetInterruptHandler
  1113 ;;		_IOCAF2_SetInterruptHandler
  1114 ;;		_IOCAF3_SetInterruptHandler
  1115 ;;		_IOCAF4_SetInterruptHandler
  1116 ;; This function is called by:
  1117 ;;		_SYSTEM_Initialize
  1118 ;; This function uses a non-reentrant model
  1119 ;;
  1120                           
  1121                           	psect	text8
  1122  000F42                     __ptext8:
  1123                           	opt callstack 0
  1124  000F42                     _PIN_MANAGER_Initialize:
  1125                           	opt callstack 23
  1126                           
  1127                           ;pin_manager.c: 65: LATE = 0x00;
  1128                           
  1129                           ; BSR set to: 14
  1130                           ;incstack = 0
  1131  000F42  0E00               	movlw	0
  1132  000F44  6E87               	movwf	3975,c	;volatile
  1133                           
  1134                           ;pin_manager.c: 66: LATD = 0x00;
  1135  000F46  0E00               	movlw	0
  1136  000F48  6E86               	movwf	3974,c	;volatile
  1137                           
  1138                           ;pin_manager.c: 67: LATA = 0x01;
  1139  000F4A  0E01               	movlw	1
  1140  000F4C  6E83               	movwf	3971,c	;volatile
  1141                           
  1142                           ;pin_manager.c: 68: LATB = 0x00;
  1143  000F4E  0E00               	movlw	0
  1144  000F50  6E84               	movwf	3972,c	;volatile
  1145                           
  1146                           ;pin_manager.c: 69: LATC = 0x00;
  1147  000F52  0E00               	movlw	0
  1148  000F54  6E85               	movwf	3973,c	;volatile
  1149                           
  1150                           ;pin_manager.c: 74: TRISE = 0x07;
  1151  000F56  0E07               	movlw	7
  1152  000F58  6E8C               	movwf	3980,c	;volatile
  1153                           
  1154                           ;pin_manager.c: 75: TRISA = 0x5E;
  1155  000F5A  0E5E               	movlw	94
  1156  000F5C  6E88               	movwf	3976,c	;volatile
  1157                           
  1158                           ;pin_manager.c: 76: TRISB = 0xED;
  1159  000F5E  0EED               	movlw	237
  1160  000F60  6E89               	movwf	3977,c	;volatile
  1161                           
  1162                           ;pin_manager.c: 77: TRISC = 0x08;
  1163  000F62  0E08               	movlw	8
  1164  000F64  6E8A               	movwf	3978,c	;volatile
  1165                           
  1166                           ;pin_manager.c: 78: TRISD = 0x00;
  1167  000F66  0E00               	movlw	0
  1168  000F68  6E8B               	movwf	3979,c	;volatile
  1169                           
  1170                           ;pin_manager.c: 83: ANSELD = 0x00;
  1171  000F6A  0E00               	movlw	0
  1172  000F6C  010F               	movlb	15	; () banked
  1173  000F6E  6F26               	movwf	38,b	;volatile
  1174                           
  1175                           ;pin_manager.c: 84: ANSELC = 0x00;
  1176  000F70  0E00               	movlw	0
  1177  000F72  6F21               	movwf	33,b	;volatile
  1178                           
  1179                           ;pin_manager.c: 85: ANSELB = 0x00;
  1180  000F74  0E00               	movlw	0
  1181  000F76  6F19               	movwf	25,b	;volatile
  1182                           
  1183                           ;pin_manager.c: 86: ANSELE = 0x00;
  1184  000F78  0E00               	movlw	0
  1185  000F7A  6F2E               	movwf	46,b	;volatile
  1186                           
  1187                           ;pin_manager.c: 87: ANSELA = 0x40;
  1188  000F7C  0E40               	movlw	64
  1189  000F7E  6F11               	movwf	17,b	;volatile
  1190                           
  1191                           ;pin_manager.c: 92: WPUD = 0x00;
  1192  000F80  0E00               	movlw	0
  1193  000F82  6F25               	movwf	37,b	;volatile
  1194                           
  1195                           ;pin_manager.c: 93: WPUE = 0x00;
  1196  000F84  0E00               	movlw	0
  1197  000F86  6F2D               	movwf	45,b	;volatile
  1198                           
  1199                           ;pin_manager.c: 94: WPUB = 0x00;
  1200  000F88  0E00               	movlw	0
  1201  000F8A  6F18               	movwf	24,b	;volatile
  1202                           
  1203                           ;pin_manager.c: 95: WPUA = 0x00;
  1204  000F8C  0E00               	movlw	0
  1205  000F8E  6F10               	movwf	16,b	;volatile
  1206                           
  1207                           ;pin_manager.c: 96: WPUC = 0x00;
  1208  000F90  0E00               	movlw	0
  1209  000F92  6F20               	movwf	32,b	;volatile
  1210                           
  1211                           ;pin_manager.c: 101: ODCONE = 0x00;
  1212  000F94  0E00               	movlw	0
  1213  000F96  6F2C               	movwf	44,b	;volatile
  1214                           
  1215                           ;pin_manager.c: 102: ODCONA = 0x00;
  1216  000F98  0E00               	movlw	0
  1217  000F9A  6F0F               	movwf	15,b	;volatile
  1218                           
  1219                           ;pin_manager.c: 103: ODCONB = 0x00;
  1220  000F9C  0E00               	movlw	0
  1221  000F9E  6F17               	movwf	23,b	;volatile
  1222                           
  1223                           ;pin_manager.c: 104: ODCONC = 0x07;
  1224  000FA0  0E07               	movlw	7
  1225  000FA2  6F1F               	movwf	31,b	;volatile
  1226                           
  1227                           ;pin_manager.c: 105: ODCOND = 0x00;
  1228  000FA4  0E00               	movlw	0
  1229  000FA6  6F24               	movwf	36,b	;volatile
  1230                           
  1231                           ; BSR set to: 15
  1232                           ;pin_manager.c: 110: SLRCONA = 0xFF;
  1233  000FA8  690E               	setf	14,b	;volatile
  1234                           
  1235                           ; BSR set to: 15
  1236                           ;pin_manager.c: 111: SLRCONB = 0xFF;
  1237  000FAA  6916               	setf	22,b	;volatile
  1238                           
  1239                           ; BSR set to: 15
  1240                           ;pin_manager.c: 112: SLRCONC = 0xFF;
  1241  000FAC  691E               	setf	30,b	;volatile
  1242                           
  1243                           ; BSR set to: 15
  1244                           ;pin_manager.c: 113: SLRCOND = 0xFF;
  1245  000FAE  6923               	setf	35,b	;volatile
  1246                           
  1247                           ;pin_manager.c: 114: SLRCONE = 0x07;
  1248  000FB0  0E07               	movlw	7
  1249  000FB2  6F2B               	movwf	43,b	;volatile
  1250                           
  1251                           ; BSR set to: 15
  1252                           ;pin_manager.c: 121: IOCAFbits.IOCAF1 = 0;
  1253  000FB4  930A               	bcf	10,1,b	;volatile
  1254                           
  1255                           ; BSR set to: 15
  1256                           ;pin_manager.c: 123: IOCAFbits.IOCAF2 = 0;
  1257  000FB6  950A               	bcf	10,2,b	;volatile
  1258                           
  1259                           ; BSR set to: 15
  1260                           ;pin_manager.c: 125: IOCAFbits.IOCAF3 = 0;
  1261  000FB8  970A               	bcf	10,3,b	;volatile
  1262                           
  1263                           ; BSR set to: 15
  1264                           ;pin_manager.c: 127: IOCAFbits.IOCAF4 = 0;
  1265  000FBA  990A               	bcf	10,4,b	;volatile
  1266                           
  1267                           ; BSR set to: 15
  1268                           ;pin_manager.c: 129: IOCANbits.IOCAN1 = 1;
  1269  000FBC  830B               	bsf	11,1,b	;volatile
  1270                           
  1271                           ; BSR set to: 15
  1272                           ;pin_manager.c: 131: IOCANbits.IOCAN2 = 1;
  1273  000FBE  850B               	bsf	11,2,b	;volatile
  1274                           
  1275                           ; BSR set to: 15
  1276                           ;pin_manager.c: 133: IOCANbits.IOCAN3 = 1;
  1277  000FC0  870B               	bsf	11,3,b	;volatile
  1278                           
  1279                           ; BSR set to: 15
  1280                           ;pin_manager.c: 135: IOCANbits.IOCAN4 = 1;
  1281  000FC2  890B               	bsf	11,4,b	;volatile
  1282                           
  1283                           ; BSR set to: 15
  1284                           ;pin_manager.c: 137: IOCAPbits.IOCAP1 = 0;
  1285  000FC4  930C               	bcf	12,1,b	;volatile
  1286                           
  1287                           ; BSR set to: 15
  1288                           ;pin_manager.c: 139: IOCAPbits.IOCAP2 = 1;
  1289  000FC6  850C               	bsf	12,2,b	;volatile
  1290                           
  1291                           ; BSR set to: 15
  1292                           ;pin_manager.c: 141: IOCAPbits.IOCAP3 = 1;
  1293  000FC8  870C               	bsf	12,3,b	;volatile
  1294                           
  1295                           ; BSR set to: 15
  1296                           ;pin_manager.c: 143: IOCAPbits.IOCAP4 = 1;
  1297  000FCA  890C               	bsf	12,4,b	;volatile
  1298                           
  1299                           ; BSR set to: 15
  1300                           ;pin_manager.c: 148: IOCAF1_SetInterruptHandler(IOCAF1_DefaultInterruptHandler);
  1301  000FCC  0E0A               	movlw	low _IOCAF1_DefaultInterruptHandler
  1302  000FCE  6E3C               	movwf	IOCAF1_SetInterruptHandler@InterruptHandler,c
  1303  000FD0  0E16               	movlw	high _IOCAF1_DefaultInterruptHandler
  1304  000FD2  6E3D               	movwf	IOCAF1_SetInterruptHandler@InterruptHandler+1,c
  1305  000FD4  ECA2  F00A         	call	_IOCAF1_SetInterruptHandler	;wreg free
  1306                           
  1307                           ;pin_manager.c: 149: IOCAF2_SetInterruptHandler(IOCAF2_DefaultInterruptHandler);
  1308  000FD8  0E08               	movlw	low _IOCAF2_DefaultInterruptHandler
  1309  000FDA  6E3C               	movwf	IOCAF2_SetInterruptHandler@InterruptHandler,c
  1310  000FDC  0E16               	movlw	high _IOCAF2_DefaultInterruptHandler
  1311  000FDE  6E3D               	movwf	IOCAF2_SetInterruptHandler@InterruptHandler+1,c
  1312  000FE0  EC9D  F00A         	call	_IOCAF2_SetInterruptHandler	;wreg free
  1313                           
  1314                           ;pin_manager.c: 150: IOCAF3_SetInterruptHandler(IOCAF3_DefaultInterruptHandler);
  1315  000FE4  0E06               	movlw	low _IOCAF3_DefaultInterruptHandler
  1316  000FE6  6E3C               	movwf	IOCAF3_SetInterruptHandler@InterruptHandler,c
  1317  000FE8  0E16               	movlw	high _IOCAF3_DefaultInterruptHandler
  1318  000FEA  6E3D               	movwf	IOCAF3_SetInterruptHandler@InterruptHandler+1,c
  1319  000FEC  EC98  F00A         	call	_IOCAF3_SetInterruptHandler	;wreg free
  1320                           
  1321                           ;pin_manager.c: 151: IOCAF4_SetInterruptHandler(IOCAF4_DefaultInterruptHandler);
  1322  000FF0  0E04               	movlw	low _IOCAF4_DefaultInterruptHandler
  1323  000FF2  6E3C               	movwf	IOCAF4_SetInterruptHandler@InterruptHandler,c
  1324  000FF4  0E16               	movlw	high _IOCAF4_DefaultInterruptHandler
  1325  000FF6  6E3D               	movwf	IOCAF4_SetInterruptHandler@InterruptHandler+1,c
  1326  000FF8  EC93  F00A         	call	_IOCAF4_SetInterruptHandler	;wreg free
  1327                           
  1328                           ;pin_manager.c: 154: PIE0bits.IOCIE = 1;
  1329  000FFC  010E               	movlb	14	; () banked
  1330  000FFE  89C2               	bsf	194,4,b	;volatile
  1331                           
  1332                           ;pin_manager.c: 157: SSP2DATPPS = 0x0A;
  1333  001000  0E0A               	movlw	10
  1334  001002  6F90               	movwf	144,b	;volatile
  1335                           
  1336                           ;pin_manager.c: 158: SSP1CLKPPS = 0x0C;
  1337  001004  0E0C               	movlw	12
  1338  001006  6FB7               	movwf	183,b	;volatile
  1339                           
  1340                           ;pin_manager.c: 159: RB1PPS = 0x11;
  1341  001008  0E11               	movlw	17
  1342  00100A  6FF0               	movwf	240,b	;volatile
  1343                           
  1344                           ;pin_manager.c: 160: INT0PPS = 0x02;
  1345  00100C  0E02               	movlw	2
  1346  00100E  6FA1               	movwf	161,b	;volatile
  1347                           
  1348                           ;pin_manager.c: 161: RB5PPS = 0x14;
  1349  001010  0E14               	movlw	20
  1350  001012  6FF4               	movwf	244,b	;volatile
  1351                           
  1352                           ;pin_manager.c: 162: RC4PPS = 0x10;
  1353  001014  0E10               	movlw	16
  1354  001016  6FFB               	movwf	251,b	;volatile
  1355                           
  1356                           ;pin_manager.c: 163: RB4PPS = 0x0F;
  1357  001018  0E0F               	movlw	15
  1358  00101A  6FF3               	movwf	243,b	;volatile
  1359                           
  1360                           ;pin_manager.c: 164: SSP1DATPPS = 0x0D;
  1361  00101C  0E0D               	movlw	13
  1362  00101E  6FB8               	movwf	184,b	;volatile
  1363                           
  1364                           ;pin_manager.c: 165: SSP2CLKPPS = 0x09;
  1365  001020  0E09               	movlw	9
  1366  001022  6F8F               	movwf	143,b	;volatile
  1367                           
  1368                           ; BSR set to: 14
  1369  001024  0012               	return		;funcret
  1370  001026                     __end_of_PIN_MANAGER_Initialize:
  1371                           	opt callstack 0
  1372                           
  1373 ;; *************** function _IOCAF4_SetInterruptHandler *****************
  1374 ;; Defined at:
  1375 ;;		line 300 in file "mcc_generated_files/pin_manager.c"
  1376 ;; Parameters:    Size  Location     Type
  1377 ;;  InterruptHan    2   15[COMRAM] PTR FTN()void 
  1378 ;;		 -> IOCAF4_DefaultInterruptHandler(1), 
  1379 ;; Auto vars:     Size  Location     Type
  1380 ;;		None
  1381 ;; Return value:  Size  Location     Type
  1382 ;;                  1    wreg      void 
  1383 ;; Registers used:
  1384 ;;		wreg, status,2, status,0
  1385 ;; Tracked objects:
  1386 ;;		On entry : 0/0
  1387 ;;		On exit  : 0/0
  1388 ;;		Unchanged: 0/0
  1389 ;; Data sizes:     COMRAM   BANK0   BANK1   BANK2   BANK3   BANK4   BANK5   BANK6   BANK7   BANK8   BANK9  BANK10  BANK1
      +1  BANK12  BANK13  BANK14
  1390 ;;      Params:         2       0       0       0       0       0       0       0       0       0       0       0       
      +0       0       0       0
  1391 ;;      Locals:         0       0       0       0       0       0       0       0       0       0       0       0       
      +0       0       0       0
  1392 ;;      Temps:          0       0       0       0       0       0       0       0       0       0       0       0       
      +0       0       0       0
  1393 ;;      Totals:         2       0       0       0       0       0       0       0       0       0       0       0       
      +0       0       0       0
  1394 ;;Total ram usage:        2 bytes
  1395 ;; Hardware stack levels used:    1
  1396 ;; Hardware stack levels required when called:    5
  1397 ;; This function calls:
  1398 ;;		Nothing
  1399 ;; This function is called by:
  1400 ;;		_PIN_MANAGER_Initialize
  1401 ;; This function uses a non-reentrant model
  1402 ;;
  1403                           
  1404                           	psect	text9
  1405  001526                     __ptext9:
  1406                           	opt callstack 0
  1407  001526                     _IOCAF4_SetInterruptHandler:
  1408                           	opt callstack 23
  1409                           
  1410                           ;pin_manager.c: 301: IOCAF4_InterruptHandler = InterruptHandler;
  1411                           
  1412                           ; BSR set to: 14
  1413                           ;incstack = 0
  1414  001526  C03C  F041         	movff	IOCAF4_SetInterruptHandler@InterruptHandler,_IOCAF4_InterruptHandler
  1415  00152A  C03D  F042         	movff	IOCAF4_SetInterruptHandler@InterruptHandler+1,_IOCAF4_InterruptHandler+1
  1416  00152E  0012               	return		;funcret
  1417  001530                     __end_of_IOCAF4_SetInterruptHandler:
  1418                           	opt callstack 0
  1419                           
  1420 ;; *************** function _IOCAF3_SetInterruptHandler *****************
  1421 ;; Defined at:
  1422 ;;		line 270 in file "mcc_generated_files/pin_manager.c"
  1423 ;; Parameters:    Size  Location     Type
  1424 ;;  InterruptHan    2   15[COMRAM] PTR FTN()void 
  1425 ;;		 -> IOCAF3_DefaultInterruptHandler(1), 
  1426 ;; Auto vars:     Size  Location     Type
  1427 ;;		None
  1428 ;; Return value:  Size  Location     Type
  1429 ;;                  1    wreg      void 
  1430 ;; Registers used:
  1431 ;;		wreg, status,2, status,0
  1432 ;; Tracked objects:
  1433 ;;		On entry : 0/0
  1434 ;;		On exit  : 0/0
  1435 ;;		Unchanged: 0/0
  1436 ;; Data sizes:     COMRAM   BANK0   BANK1   BANK2   BANK3   BANK4   BANK5   BANK6   BANK7   BANK8   BANK9  BANK10  BANK1
      +1  BANK12  BANK13  BANK14
  1437 ;;      Params:         2       0       0       0       0       0       0       0       0       0       0       0       
      +0       0       0       0
  1438 ;;      Locals:         0       0       0       0       0       0       0       0       0       0       0       0       
      +0       0       0       0
  1439 ;;      Temps:          0       0       0       0       0       0       0       0       0       0       0       0       
      +0       0       0       0
  1440 ;;      Totals:         2       0       0       0       0       0       0       0       0       0       0       0       
      +0       0       0       0
  1441 ;;Total ram usage:        2 bytes
  1442 ;; Hardware stack levels used:    1
  1443 ;; Hardware stack levels required when called:    5
  1444 ;; This function calls:
  1445 ;;		Nothing
  1446 ;; This function is called by:
  1447 ;;		_PIN_MANAGER_Initialize
  1448 ;; This function uses a non-reentrant model
  1449 ;;
  1450                           
  1451                           	psect	text10
  1452  001530                     __ptext10:
  1453                           	opt callstack 0
  1454  001530                     _IOCAF3_SetInterruptHandler:
  1455                           	opt callstack 23
  1456                           
  1457                           ;pin_manager.c: 271: IOCAF3_InterruptHandler = InterruptHandler;
  1458                           
  1459                           ;incstack = 0
  1460  001530  C03C  F043         	movff	IOCAF3_SetInterruptHandler@InterruptHandler,_IOCAF3_InterruptHandler
  1461  001534  C03D  F044         	movff	IOCAF3_SetInterruptHandler@InterruptHandler+1,_IOCAF3_InterruptHandler+1
  1462  001538  0012               	return		;funcret
  1463  00153A                     __end_of_IOCAF3_SetInterruptHandler:
  1464                           	opt callstack 0
  1465                           
  1466 ;; *************** function _IOCAF2_SetInterruptHandler *****************
  1467 ;; Defined at:
  1468 ;;		line 240 in file "mcc_generated_files/pin_manager.c"
  1469 ;; Parameters:    Size  Location     Type
  1470 ;;  InterruptHan    2   15[COMRAM] PTR FTN()void 
  1471 ;;		 -> IOCAF2_DefaultInterruptHandler(1), 
  1472 ;; Auto vars:     Size  Location     Type
  1473 ;;		None
  1474 ;; Return value:  Size  Location     Type
  1475 ;;                  1    wreg      void 
  1476 ;; Registers used:
  1477 ;;		wreg, status,2, status,0
  1478 ;; Tracked objects:
  1479 ;;		On entry : 0/0
  1480 ;;		On exit  : 0/0
  1481 ;;		Unchanged: 0/0
  1482 ;; Data sizes:     COMRAM   BANK0   BANK1   BANK2   BANK3   BANK4   BANK5   BANK6   BANK7   BANK8   BANK9  BANK10  BANK1
      +1  BANK12  BANK13  BANK14
  1483 ;;      Params:         2       0       0       0       0       0       0       0       0       0       0       0       
      +0       0       0       0
  1484 ;;      Locals:         0       0       0       0       0       0       0       0       0       0       0       0       
      +0       0       0       0
  1485 ;;      Temps:          0       0       0       0       0       0       0       0       0       0       0       0       
      +0       0       0       0
  1486 ;;      Totals:         2       0       0       0       0       0       0       0       0       0       0       0       
      +0       0       0       0
  1487 ;;Total ram usage:        2 bytes
  1488 ;; Hardware stack levels used:    1
  1489 ;; Hardware stack levels required when called:    5
  1490 ;; This function calls:
  1491 ;;		Nothing
  1492 ;; This function is called by:
  1493 ;;		_PIN_MANAGER_Initialize
  1494 ;; This function uses a non-reentrant model
  1495 ;;
  1496                           
  1497                           	psect	text11
  1498  00153A                     __ptext11:
  1499                           	opt callstack 0
  1500  00153A                     _IOCAF2_SetInterruptHandler:
  1501                           	opt callstack 23
  1502                           
  1503                           ;pin_manager.c: 241: IOCAF2_InterruptHandler = InterruptHandler;
  1504                           
  1505                           ;incstack = 0
  1506  00153A  C03C  F045         	movff	IOCAF2_SetInterruptHandler@InterruptHandler,_IOCAF2_InterruptHandler
  1507  00153E  C03D  F046         	movff	IOCAF2_SetInterruptHandler@InterruptHandler+1,_IOCAF2_InterruptHandler+1
  1508  001542  0012               	return		;funcret
  1509  001544                     __end_of_IOCAF2_SetInterruptHandler:
  1510                           	opt callstack 0
  1511                           
  1512 ;; *************** function _IOCAF1_SetInterruptHandler *****************
  1513 ;; Defined at:
  1514 ;;		line 210 in file "mcc_generated_files/pin_manager.c"
  1515 ;; Parameters:    Size  Location     Type
  1516 ;;  InterruptHan    2   15[COMRAM] PTR FTN()void 
  1517 ;;		 -> IOCAF1_DefaultInterruptHandler(1), 
  1518 ;; Auto vars:     Size  Location     Type
  1519 ;;		None
  1520 ;; Return value:  Size  Location     Type
  1521 ;;                  1    wreg      void 
  1522 ;; Registers used:
  1523 ;;		wreg, status,2, status,0
  1524 ;; Tracked objects:
  1525 ;;		On entry : 0/0
  1526 ;;		On exit  : 0/0
  1527 ;;		Unchanged: 0/0
  1528 ;; Data sizes:     COMRAM   BANK0   BANK1   BANK2   BANK3   BANK4   BANK5   BANK6   BANK7   BANK8   BANK9  BANK10  BANK1
      +1  BANK12  BANK13  BANK14
  1529 ;;      Params:         2       0       0       0       0       0       0       0       0       0       0       0       
      +0       0       0       0
  1530 ;;      Locals:         0       0       0       0       0       0       0       0       0       0       0       0       
      +0       0       0       0
  1531 ;;      Temps:          0       0       0       0       0       0       0       0       0       0       0       0       
      +0       0       0       0
  1532 ;;      Totals:         2       0       0       0       0       0       0       0       0       0       0       0       
      +0       0       0       0
  1533 ;;Total ram usage:        2 bytes
  1534 ;; Hardware stack levels used:    1
  1535 ;; Hardware stack levels required when called:    5
  1536 ;; This function calls:
  1537 ;;		Nothing
  1538 ;; This function is called by:
  1539 ;;		_PIN_MANAGER_Initialize
  1540 ;; This function uses a non-reentrant model
  1541 ;;
  1542                           
  1543                           	psect	text12
  1544  001544                     __ptext12:
  1545                           	opt callstack 0
  1546  001544                     _IOCAF1_SetInterruptHandler:
  1547                           	opt callstack 23
  1548                           
  1549                           ;pin_manager.c: 211: IOCAF1_InterruptHandler = InterruptHandler;
  1550                           
  1551                           ;incstack = 0
  1552  001544  C03C  F047         	movff	IOCAF1_SetInterruptHandler@InterruptHandler,_IOCAF1_InterruptHandler
  1553  001548  C03D  F048         	movff	IOCAF1_SetInterruptHandler@InterruptHandler+1,_IOCAF1_InterruptHandler+1
  1554  00154C  0012               	return		;funcret
  1555  00154E                     __end_of_IOCAF1_SetInterruptHandler:
  1556                           	opt callstack 0
  1557                           
  1558 ;; *************** function _OSCILLATOR_Initialize *****************
  1559 ;; Defined at:
  1560 ;;		line 60 in file "mcc_generated_files/mcc.c"
  1561 ;; Parameters:    Size  Location     Type
  1562 ;;		None
  1563 ;; Auto vars:     Size  Location     Type
  1564 ;;		None
  1565 ;; Return value:  Size  Location     Type
  1566 ;;                  1    wreg      void 
  1567 ;; Registers used:
  1568 ;;		wreg, status,2
  1569 ;; Tracked objects:
  1570 ;;		On entry : 0/0
  1571 ;;		On exit  : 0/0
  1572 ;;		Unchanged: 0/0
  1573 ;; Data sizes:     COMRAM   BANK0   BANK1   BANK2   BANK3   BANK4   BANK5   BANK6   BANK7   BANK8   BANK9  BANK10  BANK1
      +1  BANK12  BANK13  BANK14
  1574 ;;      Params:         0       0       0       0       0       0       0       0       0       0       0       0       
      +0       0       0       0
  1575 ;;      Locals:         0       0       0       0       0       0       0       0       0       0       0       0       
      +0       0       0       0
  1576 ;;      Temps:          0       0       0       0       0       0       0       0       0       0       0       0       
      +0       0       0       0
  1577 ;;      Totals:         0       0       0       0       0       0       0       0       0       0       0       0       
      +0       0       0       0
  1578 ;;Total ram usage:        0 bytes
  1579 ;; Hardware stack levels used:    1
  1580 ;; Hardware stack levels required when called:    5
  1581 ;; This function calls:
  1582 ;;		Nothing
  1583 ;; This function is called by:
  1584 ;;		_SYSTEM_Initialize
  1585 ;; This function uses a non-reentrant model
  1586 ;;
  1587                           
  1588                           	psect	text13
  1589  00149C                     __ptext13:
  1590                           	opt callstack 0
  1591  00149C                     _OSCILLATOR_Initialize:
  1592                           	opt callstack 24
  1593                           
  1594                           ;mcc.c: 63: OSCCON1 = 0x60;
  1595                           
  1596                           ;incstack = 0
  1597  00149C  0E60               	movlw	96
  1598  00149E  010E               	movlb	14	; () banked
  1599  0014A0  6FD8               	movwf	216,b	;volatile
  1600                           
  1601                           ;mcc.c: 65: OSCCON3 = 0x00;
  1602  0014A2  0E00               	movlw	0
  1603  0014A4  6FDA               	movwf	218,b	;volatile
  1604                           
  1605                           ;mcc.c: 67: OSCEN = 0x00;
  1606  0014A6  0E00               	movlw	0
  1607  0014A8  6FDC               	movwf	220,b	;volatile
  1608                           
  1609                           ;mcc.c: 69: OSCFRQ = 0x08;
  1610  0014AA  0E08               	movlw	8
  1611  0014AC  6FDE               	movwf	222,b	;volatile
  1612                           
  1613                           ;mcc.c: 71: OSCTUNE = 0x00;
  1614  0014AE  0E00               	movlw	0
  1615  0014B0  6FDD               	movwf	221,b	;volatile
  1616                           
  1617                           ; BSR set to: 14
  1618  0014B2  0012               	return		;funcret
  1619  0014B4                     __end_of_OSCILLATOR_Initialize:
  1620                           	opt callstack 0
  1621                           
  1622 ;; *************** function _INTERRUPT_Initialize *****************
  1623 ;; Defined at:
  1624 ;;		line 52 in file "mcc_generated_files/interrupt_manager.c"
  1625 ;; Parameters:    Size  Location     Type
  1626 ;;		None
  1627 ;; Auto vars:     Size  Location     Type
  1628 ;;		None
  1629 ;; Return value:  Size  Location     Type
  1630 ;;                  1    wreg      void 
  1631 ;; Registers used:
  1632 ;;		None
  1633 ;; Tracked objects:
  1634 ;;		On entry : 0/0
  1635 ;;		On exit  : 0/0
  1636 ;;		Unchanged: 0/0
  1637 ;; Data sizes:     COMRAM   BANK0   BANK1   BANK2   BANK3   BANK4   BANK5   BANK6   BANK7   BANK8   BANK9  BANK10  BANK1
      +1  BANK12  BANK13  BANK14
  1638 ;;      Params:         0       0       0       0       0       0       0       0       0       0       0       0       
      +0       0       0       0
  1639 ;;      Locals:         0       0       0       0       0       0       0       0       0       0       0       0       
      +0       0       0       0
  1640 ;;      Temps:          0       0       0       0       0       0       0       0       0       0       0       0       
      +0       0       0       0
  1641 ;;      Totals:         0       0       0       0       0       0       0       0       0       0       0       0       
      +0       0       0       0
  1642 ;;Total ram usage:        0 bytes
  1643 ;; Hardware stack levels used:    1
  1644 ;; Hardware stack levels required when called:    5
  1645 ;; This function calls:
  1646 ;;		Nothing
  1647 ;; This function is called by:
  1648 ;;		_SYSTEM_Initialize
  1649 ;; This function uses a non-reentrant model
  1650 ;;
  1651                           
  1652                           	psect	text14
  1653  0015E4                     __ptext14:
  1654                           	opt callstack 0
  1655  0015E4                     _INTERRUPT_Initialize:
  1656                           	opt callstack 24
  1657                           
  1658                           ;interrupt_manager.c: 55: INTCONbits.IPEN = 0;
  1659                           
  1660                           ; BSR set to: 14
  1661                           ;incstack = 0
  1662  0015E4  9AF2               	bcf	4082,5,c	;volatile
  1663  0015E6  0012               	return		;funcret
  1664  0015E8                     __end_of_INTERRUPT_Initialize:
  1665                           	opt callstack 0
  1666                           
  1667 ;; *************** function _EXT_INT_Initialize *****************
  1668 ;; Defined at:
  1669 ;;		line 59 in file "mcc_generated_files/ext_int.c"
  1670 ;; Parameters:    Size  Location     Type
  1671 ;;		None
  1672 ;; Auto vars:     Size  Location     Type
  1673 ;;		None
  1674 ;; Return value:  Size  Location     Type
  1675 ;;                  1    wreg      void 
  1676 ;; Registers used:
  1677 ;;		wreg, status,2, status,0, cstack
  1678 ;; Tracked objects:
  1679 ;;		On entry : 0/0
  1680 ;;		On exit  : 0/0
  1681 ;;		Unchanged: 0/0
  1682 ;; Data sizes:     COMRAM   BANK0   BANK1   BANK2   BANK3   BANK4   BANK5   BANK6   BANK7   BANK8   BANK9  BANK10  BANK1
      +1  BANK12  BANK13  BANK14
  1683 ;;      Params:         0       0       0       0       0       0       0       0       0       0       0       0       
      +0       0       0       0
  1684 ;;      Locals:         0       0       0       0       0       0       0       0       0       0       0       0       
      +0       0       0       0
  1685 ;;      Temps:          0       0       0       0       0       0       0       0       0       0       0       0       
      +0       0       0       0
  1686 ;;      Totals:         0       0       0       0       0       0       0       0       0       0       0       0       
      +0       0       0       0
  1687 ;;Total ram usage:        0 bytes
  1688 ;; Hardware stack levels used:    1
  1689 ;; Hardware stack levels required when called:    6
  1690 ;; This function calls:
  1691 ;;		_INT0_SetInterruptHandler
  1692 ;; This function is called by:
  1693 ;;		_SYSTEM_Initialize
  1694 ;; This function uses a non-reentrant model
  1695 ;;
  1696                           
  1697                           	psect	text15
  1698  0014B4                     __ptext15:
  1699                           	opt callstack 0
  1700  0014B4                     _EXT_INT_Initialize:
  1701                           	opt callstack 23
  1702                           
  1703                           ;ext_int.c: 64: (PIR0bits.INT0IF = 0);
  1704                           
  1705                           ;incstack = 0
  1706  0014B4  010E               	movlb	14	; () banked
  1707  0014B6  91CA               	bcf	202,0,b	;volatile
  1708                           
  1709                           ;ext_int.c: 65: (INTCONbits.INT0EDG = 1);
  1710  0014B8  80F2               	bsf	4082,0,c	;volatile
  1711                           
  1712                           ; BSR set to: 14
  1713                           ;ext_int.c: 67: INT0_SetInterruptHandler(INT0_DefaultInterruptHandler);
  1714  0014BA  0E0C               	movlw	low _INT0_DefaultInterruptHandler
  1715  0014BC  6E3C               	movwf	INT0_SetInterruptHandler@InterruptHandler,c
  1716  0014BE  0E16               	movlw	high _INT0_DefaultInterruptHandler
  1717  0014C0  6E3D               	movwf	INT0_SetInterruptHandler@InterruptHandler+1,c
  1718  0014C2  ECA7  F00A         	call	_INT0_SetInterruptHandler	;wreg free
  1719                           
  1720                           ;ext_int.c: 68: (PIE0bits.INT0IE = 1);
  1721  0014C6  010E               	movlb	14	; () banked
  1722  0014C8  81C2               	bsf	194,0,b	;volatile
  1723                           
  1724                           ; BSR set to: 14
  1725  0014CA  0012               	return		;funcret
  1726  0014CC                     __end_of_EXT_INT_Initialize:
  1727                           	opt callstack 0
  1728                           
  1729 ;; *************** function _INT0_SetInterruptHandler *****************
  1730 ;; Defined at:
  1731 ;;		line 50 in file "mcc_generated_files/ext_int.c"
  1732 ;; Parameters:    Size  Location     Type
  1733 ;;  InterruptHan    2   15[COMRAM] PTR FTN()void 
  1734 ;;		 -> INT0_DefaultInterruptHandler(1), 
  1735 ;; Auto vars:     Size  Location     Type
  1736 ;;		None
  1737 ;; Return value:  Size  Location     Type
  1738 ;;                  1    wreg      void 
  1739 ;; Registers used:
  1740 ;;		wreg, status,2, status,0
  1741 ;; Tracked objects:
  1742 ;;		On entry : 0/0
  1743 ;;		On exit  : 0/0
  1744 ;;		Unchanged: 0/0
  1745 ;; Data sizes:     COMRAM   BANK0   BANK1   BANK2   BANK3   BANK4   BANK5   BANK6   BANK7   BANK8   BANK9  BANK10  BANK1
      +1  BANK12  BANK13  BANK14
  1746 ;;      Params:         2       0       0       0       0       0       0       0       0       0       0       0       
      +0       0       0       0
  1747 ;;      Locals:         0       0       0       0       0       0       0       0       0       0       0       0       
      +0       0       0       0
  1748 ;;      Temps:          0       0       0       0       0       0       0       0       0       0       0       0       
      +0       0       0       0
  1749 ;;      Totals:         2       0       0       0       0       0       0       0       0       0       0       0       
      +0       0       0       0
  1750 ;;Total ram usage:        2 bytes
  1751 ;; Hardware stack levels used:    1
  1752 ;; Hardware stack levels required when called:    5
  1753 ;; This function calls:
  1754 ;;		Nothing
  1755 ;; This function is called by:
  1756 ;;		_EXT_INT_Initialize
  1757 ;; This function uses a non-reentrant model
  1758 ;;
  1759                           
  1760                           	psect	text16
  1761  00154E                     __ptext16:
  1762                           	opt callstack 0
  1763  00154E                     _INT0_SetInterruptHandler:
  1764                           	opt callstack 23
  1765                           
  1766                           ;ext_int.c: 51: INT0_InterruptHandler = InterruptHandler;
  1767                           
  1768                           ; BSR set to: 14
  1769                           ;incstack = 0
  1770  00154E  C03C  F049         	movff	INT0_SetInterruptHandler@InterruptHandler,_INT0_InterruptHandler
  1771  001552  C03D  F04A         	movff	INT0_SetInterruptHandler@InterruptHandler+1,_INT0_InterruptHandler+1
  1772  001556  0012               	return		;funcret
  1773  001558                     __end_of_INT0_SetInterruptHandler:
  1774                           	opt callstack 0
  1775                           
  1776 ;; *************** function _INTERRUPT_InterruptManager *****************
  1777 ;; Defined at:
  1778 ;;		line 58 in file "mcc_generated_files/interrupt_manager.c"
  1779 ;; Parameters:    Size  Location     Type
  1780 ;;		None
  1781 ;; Auto vars:     Size  Location     Type
  1782 ;;		None
  1783 ;; Return value:  Size  Location     Type
  1784 ;;                  1    wreg      void 
  1785 ;; Registers used:
  1786 ;;		wreg, fsr2l, fsr2h, status,2, status,0, pclath, tosl, tblptrl, tblptrh, tblptru, prodl, prodh, cstack
  1787 ;; Tracked objects:
  1788 ;;		On entry : 0/0
  1789 ;;		On exit  : 0/0
  1790 ;;		Unchanged: 0/0
  1791 ;; Data sizes:     COMRAM   BANK0   BANK1   BANK2   BANK3   BANK4   BANK5   BANK6   BANK7   BANK8   BANK9  BANK10  BANK1
      +1  BANK12  BANK13  BANK14
  1792 ;;      Params:         0       0       0       0       0       0       0       0       0       0       0       0       
      +0       0       0       0
  1793 ;;      Locals:         0       0       0       0       0       0       0       0       0       0       0       0       
      +0       0       0       0
  1794 ;;      Temps:         10       0       0       0       0       0       0       0       0       0       0       0       
      +0       0       0       0
  1795 ;;      Totals:        10       0       0       0       0       0       0       0       0       0       0       0       
      +0       0       0       0
  1796 ;;Total ram usage:       10 bytes
  1797 ;; Hardware stack levels used:    1
  1798 ;; Hardware stack levels required when called:    4
  1799 ;; This function calls:
  1800 ;;		Absolute function
  1801 ;;		_INT0_ISR
  1802 ;;		_PIN_MANAGER_IOC
  1803 ;;		_TMR2_ISR
  1804 ;;		_i2c_ISR
  1805 ;;		_i2c_busCollisionISR
  1806 ;; This function is called by:
  1807 ;;		Interrupt level 2
  1808 ;; This function uses a non-reentrant model
  1809 ;;
  1810                           
  1811                           	psect	intcode
  1812  000008                     __pintcode:
  1813                           	opt callstack 0
  1814  000008                     _INTERRUPT_InterruptManager:
  1815                           	opt callstack 23
  1816                           
  1817                           ;incstack = 0
  1818  000008  824D               	bsf	btemp,1,c	;set compiler interrupt flag (level 2)
  1819  00000A  CFFA F032          	movff	pclath,??_INTERRUPT_InterruptManager
  1820  00000E  CFFB F033          	movff	pclatu,??_INTERRUPT_InterruptManager+1
  1821  000012  CFD9 F034          	movff	fsr2l,??_INTERRUPT_InterruptManager+2
  1822  000016  CFDA F035          	movff	fsr2h,??_INTERRUPT_InterruptManager+3
  1823  00001A  CFF3 F036          	movff	prodl,??_INTERRUPT_InterruptManager+4
  1824  00001E  CFF4 F037          	movff	prodh,??_INTERRUPT_InterruptManager+5
  1825  000022  CFF6 F038          	movff	tblptrl,??_INTERRUPT_InterruptManager+6
  1826  000026  CFF7 F039          	movff	tblptrh,??_INTERRUPT_InterruptManager+7
  1827  00002A  CFF8 F03A          	movff	tblptru,??_INTERRUPT_InterruptManager+8
  1828  00002E  CFF5 F03B          	movff	tablat,??_INTERRUPT_InterruptManager+9
  1829                           
  1830                           ;interrupt_manager.c: 61: if(PIE0bits.INT0IE == 1 && PIR0bits.INT0IF == 1)
  1831  000032  010E               	movlb	14	; () banked
  1832  000034  B1C2               	btfsc	194,0,b	;volatile
  1833                           
  1834                           ; BSR set to: 14
  1835  000036  A1CA               	btfss	202,0,b	;volatile
  1836  000038  D003               	goto	i2l368
  1837                           
  1838                           ; BSR set to: 14
  1839                           ;interrupt_manager.c: 62: {;interrupt_manager.c: 63: INT0_ISR();
  1840  00003A  ECBB  F00A         	call	_INT0_ISR	;wreg free
  1841                           
  1842                           ;interrupt_manager.c: 64: }
  1843  00003E  D026               	goto	i2l374
  1844  000040                     i2l368:
  1845                           
  1846                           ; BSR set to: 14
  1847                           ;interrupt_manager.c: 65: else if(PIE0bits.IOCIE == 1 && PIR0bits.IOCIF == 1)
  1848  000040  B9C2               	btfsc	194,4,b	;volatile
  1849                           
  1850                           ; BSR set to: 14
  1851  000042  A9CA               	btfss	202,4,b	;volatile
  1852  000044  D003               	goto	i2l370
  1853                           
  1854                           ; BSR set to: 14
  1855                           ;interrupt_manager.c: 66: {;interrupt_manager.c: 67: PIN_MANAGER_IOC();
  1856  000046  ECBB  F009         	call	_PIN_MANAGER_IOC	;wreg free
  1857                           
  1858                           ;interrupt_manager.c: 68: }
  1859  00004A  D020               	goto	i2l374
  1860  00004C                     i2l370:
  1861                           
  1862                           ; BSR set to: 14
  1863                           ;interrupt_manager.c: 69: else if(INTCONbits.PEIE == 1)
  1864  00004C  ACF2               	btfss	4082,6,c	;volatile
  1865  00004E  D01E               	goto	i2l374
  1866                           
  1867                           ; BSR set to: 14
  1868                           ;interrupt_manager.c: 70: {;interrupt_manager.c: 71: if(PIE3bits.BCL1IE == 1 && PIR3bits
      +                          .BCL1IF == 1)
  1869  000050  B3C5               	btfsc	197,1,b	;volatile
  1870                           
  1871                           ; BSR set to: 14
  1872  000052  A3CD               	btfss	205,1,b	;volatile
  1873  000054  D008               	goto	i2l373
  1874                           
  1875                           ; BSR set to: 14
  1876                           ;interrupt_manager.c: 72: {;interrupt_manager.c: 73: i2c1_driver_busCollisionISR();
  1877  000056  D801               	call	i2u98_48
  1878  000058  D019               	goto	i2l374
  1879  00005A                     i2u98_48:
  1880  00005A  0005               	push	
  1881  00005C  6EFA               	movwf	pclath,c
  1882  00005E  502B               	movf	_i2c1_driver_busCollisionISR,w,c
  1883  000060  6EFD               	movwf	tosl,c
  1884  000062  502C               	movf	_i2c1_driver_busCollisionISR+1,w,c
  1885  000064  D00A               	goto	L1
  1886  000066                     i2l373:
  1887                           
  1888                           ; BSR set to: 14
  1889                           ;interrupt_manager.c: 75: else if(PIE3bits.SSP1IE == 1 && PIR3bits.SSP1IF == 1)
  1890  000066  B1C5               	btfsc	197,0,b	;volatile
  1891                           
  1892                           ; BSR set to: 14
  1893  000068  A1CD               	btfss	205,0,b	;volatile
  1894  00006A  D00B               	goto	i2l375
  1895                           
  1896                           ; BSR set to: 14
  1897                           ;interrupt_manager.c: 76: {;interrupt_manager.c: 77: i2c1_driver_i2cISR();
  1898  00006C  D801               	call	i2u101_48
  1899  00006E  D00E               	goto	i2l374
  1900  000070                     i2u101_48:
  1901  000070  0005               	push	
  1902  000072  6EFA               	movwf	pclath,c
  1903  000074  5029               	movf	_i2c1_driver_i2cISR,w,c
  1904  000076  6EFD               	movwf	tosl,c
  1905  000078  502A               	movf	_i2c1_driver_i2cISR+1,w,c
  1906  00007A                     L1:
  1907  00007A  6EFE               	movwf	tosh,c
  1908  00007C  6AFF               	clrf	tosu,c
  1909  00007E  50FA               	movf	pclath,w,c
  1910  000080  0012               	return		;indir
  1911  000082                     i2l375:
  1912                           
  1913                           ; BSR set to: 14
  1914                           ;interrupt_manager.c: 79: else if(PIE4bits.TMR2IE == 1 && PIR4bits.TMR2IF == 1)
  1915  000082  B3C6               	btfsc	198,1,b	;volatile
  1916                           
  1917                           ; BSR set to: 14
  1918  000084  A3CE               	btfss	206,1,b	;volatile
  1919  000086  D002               	goto	i2l374
  1920                           
  1921                           ; BSR set to: 14
  1922                           ;interrupt_manager.c: 80: {;interrupt_manager.c: 81: TMR2_ISR();
  1923  000088  ECB6  F00A         	call	_TMR2_ISR	;wreg free
  1924  00008C                     i2l374:
  1925                           
  1926                           ; BSR set to: 14
  1927                           ;interrupt_manager.c: 86: };interrupt_manager.c: 87: }
  1928  00008C  C03B  FFF5         	movff	??_INTERRUPT_InterruptManager+9,tablat
  1929  000090  C03A  FFF8         	movff	??_INTERRUPT_InterruptManager+8,tblptru
  1930  000094  C039  FFF7         	movff	??_INTERRUPT_InterruptManager+7,tblptrh
  1931  000098  C038  FFF6         	movff	??_INTERRUPT_InterruptManager+6,tblptrl
  1932  00009C  C037  FFF4         	movff	??_INTERRUPT_InterruptManager+5,prodh
  1933  0000A0  C036  FFF3         	movff	??_INTERRUPT_InterruptManager+4,prodl
  1934  0000A4  C035  FFDA         	movff	??_INTERRUPT_InterruptManager+3,fsr2h
  1935  0000A8  C034  FFD9         	movff	??_INTERRUPT_InterruptManager+2,fsr2l
  1936  0000AC  C033  FFFB         	movff	??_INTERRUPT_InterruptManager+1,pclatu
  1937  0000B0  C032  FFFA         	movff	??_INTERRUPT_InterruptManager,pclath
  1938  0000B4  924D               	bcf	btemp,1,c	;clear compiler interrupt flag (level 2)
  1939  0000B6  0011               	retfie		f
  1940  0000B8                     __end_of_INTERRUPT_InterruptManager:
  1941                           	opt callstack 0
  1942                           
  1943 ;; *************** function _i2c_busCollisionISR *****************
  1944 ;; Defined at:
  1945 ;;		line 435 in file "mcc_generated_files/drivers/i2c_master.c"
  1946 ;; Parameters:    Size  Location     Type
  1947 ;;		None
  1948 ;; Auto vars:     Size  Location     Type
  1949 ;;		None
  1950 ;; Return value:  Size  Location     Type
  1951 ;;                  1    wreg      void 
  1952 ;; Registers used:
  1953 ;;		cstack
  1954 ;; Tracked objects:
  1955 ;;		On entry : 0/0
  1956 ;;		On exit  : 0/0
  1957 ;;		Unchanged: 0/0
  1958 ;; Data sizes:     COMRAM   BANK0   BANK1   BANK2   BANK3   BANK4   BANK5   BANK6   BANK7   BANK8   BANK9  BANK10  BANK1
      +1  BANK12  BANK13  BANK14
  1959 ;;      Params:         0       0       0       0       0       0       0       0       0       0       0       0       
      +0       0       0       0
  1960 ;;      Locals:         0       0       0       0       0       0       0       0       0       0       0       0       
      +0       0       0       0
  1961 ;;      Temps:          0       0       0       0       0       0       0       0       0       0       0       0       
      +0       0       0       0
  1962 ;;      Totals:         0       0       0       0       0       0       0       0       0       0       0       0       
      +0       0       0       0
  1963 ;;Total ram usage:        0 bytes
  1964 ;; Hardware stack levels used:    1
  1965 ;; Hardware stack levels required when called:    1
  1966 ;; This function calls:
  1967 ;;		_i2c1_driver_clearBusCollision
  1968 ;; This function is called by:
  1969 ;;		_i2c_open
  1970 ;;		_INTERRUPT_InterruptManager
  1971 ;; This function uses a non-reentrant model
  1972 ;;
  1973                           
  1974                           	psect	text18
  1975  0015C0                     __ptext18:
  1976                           	opt callstack 0
  1977  0015C0                     _i2c_busCollisionISR:
  1978                           	opt callstack 25
  1979                           
  1980                           ;i2c_master.c: 437: i2c1_driver_clearBusCollision();
  1981                           
  1982                           ;incstack = 0
  1983  0015C0  ECE3  F00A         	call	_i2c1_driver_clearBusCollision	;wreg free
  1984  0015C4  0012               	return		;funcret
  1985  0015C6                     __end_of_i2c_busCollisionISR:
  1986                           	opt callstack 0
  1987                           
  1988 ;; *************** function _i2c1_driver_clearBusCollision *****************
  1989 ;; Defined at:
  1990 ;;		line 253 in file "mcc_generated_files/i2c1_driver.c"
  1991 ;; Parameters:    Size  Location     Type
  1992 ;;		None
  1993 ;; Auto vars:     Size  Location     Type
  1994 ;;		None
  1995 ;; Return value:  Size  Location     Type
  1996 ;;                  1    wreg      void 
  1997 ;; Registers used:
  1998 ;;		None
  1999 ;; Tracked objects:
  2000 ;;		On entry : 0/0
  2001 ;;		On exit  : 0/0
  2002 ;;		Unchanged: 0/0
  2003 ;; Data sizes:     COMRAM   BANK0   BANK1   BANK2   BANK3   BANK4   BANK5   BANK6   BANK7   BANK8   BANK9  BANK10  BANK1
      +1  BANK12  BANK13  BANK14
  2004 ;;      Params:         0       0       0       0       0       0       0       0       0       0       0       0       
      +0       0       0       0
  2005 ;;      Locals:         0       0       0       0       0       0       0       0       0       0       0       0       
      +0       0       0       0
  2006 ;;      Temps:          0       0       0       0       0       0       0       0       0       0       0       0       
      +0       0       0       0
  2007 ;;      Totals:         0       0       0       0       0       0       0       0       0       0       0       0       
      +0       0       0       0
  2008 ;;Total ram usage:        0 bytes
  2009 ;; Hardware stack levels used:    1
  2010 ;; This function calls:
  2011 ;;		Nothing
  2012 ;; This function is called by:
  2013 ;;		_i2c_busCollisionISR
  2014 ;; This function uses a non-reentrant model
  2015 ;;
  2016                           
  2017                           	psect	text19
  2018  0015C6                     __ptext19:
  2019                           	opt callstack 0
  2020  0015C6                     _i2c1_driver_clearBusCollision:
  2021                           	opt callstack 25
  2022                           
  2023                           ;i2c1_driver.c: 255: PIR3bits.BCL1IF = 0;
  2024                           
  2025                           ;incstack = 0
  2026  0015C6  010E               	movlb	14	; () banked
  2027  0015C8  93CD               	bcf	205,1,b	;volatile
  2028                           
  2029                           ; BSR set to: 14
  2030  0015CA  0012               	return		;funcret
  2031  0015CC                     __end_of_i2c1_driver_clearBusCollision:
  2032                           	opt callstack 0
  2033                           
  2034 ;; *************** function _i2c_ISR *****************
  2035 ;; Defined at:
  2036 ;;		line 419 in file "mcc_generated_files/drivers/i2c_master.c"
  2037 ;; Parameters:    Size  Location     Type
  2038 ;;		None
  2039 ;; Auto vars:     Size  Location     Type
  2040 ;;		None
  2041 ;; Return value:  Size  Location     Type
  2042 ;;                  1    wreg      void 
  2043 ;; Registers used:
  2044 ;;		wreg, fsr2l, fsr2h, status,2, status,0, pclath, tosl, tblptrl, tblptrh, tblptru, prodl, prodh, cstack
  2045 ;; Tracked objects:
  2046 ;;		On entry : 0/0
  2047 ;;		On exit  : 0/0
  2048 ;;		Unchanged: 0/0
  2049 ;; Data sizes:     COMRAM   BANK0   BANK1   BANK2   BANK3   BANK4   BANK5   BANK6   BANK7   BANK8   BANK9  BANK10  BANK1
      +1  BANK12  BANK13  BANK14
  2050 ;;      Params:         0       0       0       0       0       0       0       0       0       0       0       0       
      +0       0       0       0
  2051 ;;      Locals:         0       0       0       0       0       0       0       0       0       0       0       0       
      +0       0       0       0
  2052 ;;      Temps:          2       0       0       0       0       0       0       0       0       0       0       0       
      +0       0       0       0
  2053 ;;      Totals:         2       0       0       0       0       0       0       0       0       0       0       0       
      +0       0       0       0
  2054 ;;Total ram usage:        2 bytes
  2055 ;; Hardware stack levels used:    1
  2056 ;; Hardware stack levels required when called:    3
  2057 ;; This function calls:
  2058 ;;		_do_I2C_DO_ACK
  2059 ;;		_do_I2C_DO_ADDRESS_NACK
  2060 ;;		_do_I2C_DO_NACK_RESTART
  2061 ;;		_do_I2C_DO_NACK_STOP
  2062 ;;		_do_I2C_IDLE
  2063 ;;		_do_I2C_RCEN
  2064 ;;		_do_I2C_RESET
  2065 ;;		_do_I2C_RX
  2066 ;;		_do_I2C_SEND_ADR_READ
  2067 ;;		_do_I2C_SEND_ADR_WRITE
  2068 ;;		_do_I2C_SEND_RESTART
  2069 ;;		_do_I2C_SEND_RESTART_READ
  2070 ;;		_do_I2C_SEND_RESTART_WRITE
  2071 ;;		_do_I2C_SEND_STOP
  2072 ;;		_do_I2C_TX
  2073 ;;		_do_I2C_TX_EMPTY
  2074 ;;		_i2c1_driver_isNACK
  2075 ;;		_mssp1_clearIRQ
  2076 ;; This function is called by:
  2077 ;;		_i2c_open
  2078 ;;		_i2c_poller
  2079 ;;		_INTERRUPT_InterruptManager
  2080 ;; This function uses a non-reentrant model
  2081 ;;
  2082                           
  2083                           	psect	text20
  2084  001242                     __ptext20:
  2085                           	opt callstack 0
  2086  001242                     _i2c_ISR:
  2087                           	opt callstack 23
  2088                           
  2089                           ;i2c_master.c: 421: mssp1_clearIRQ();
  2090                           
  2091                           ; BSR set to: 14
  2092                           ;incstack = 0
  2093  001242  ECE6  F00A         	call	_mssp1_clearIRQ	;wreg free
  2094                           
  2095                           ;i2c_master.c: 427: if(i2c_status.addressNACKCheck && i2c1_driver_isNACK())
  2096  001246  A601               	btfss	_i2c_status,3,c
  2097  001248  D006               	goto	i2l2844
  2098  00124A  EC71  F00A         	call	_i2c1_driver_isNACK	;wreg free
  2099  00124E  A0D8               	btfss	status,0,c
  2100  001250  D002               	goto	i2l2844
  2101                           
  2102                           ;i2c_master.c: 428: {;i2c_master.c: 429: i2c_status.state = I2C_ADDRESS_NACK;
  2103  001252  0E0F               	movlw	15
  2104  001254  6E0B               	movwf	_i2c_status+10,c
  2105  001256                     i2l2844:
  2106                           
  2107                           ;i2c_master.c: 430: };i2c_master.c: 432: i2c_status.state = fsmStateTable[i2c_status.sta
      +                          te]();
  2108  001256  500B               	movf	_i2c_status+10,w,c
  2109  001258  0D02               	mullw	2
  2110  00125A  0E01               	movlw	low _fsmStateTable
  2111  00125C  24F3               	addwf	prodl,w,c
  2112  00125E  6EF6               	movwf	tblptrl,c
  2113  001260  0E0F               	movlw	high _fsmStateTable
  2114  001262  20F4               	addwfc	prodh,w,c
  2115  001264  6EF7               	movwf	tblptrh,c
  2116  001266                     	if	1	;There are 3 active tblptr bytes
  2117  001266  6AF8               	clrf	tblptru,c
  2118  001268  0E00               	movlw	low (__mediumconst shr (0+16))
  2119  00126A  22F8               	addwfc	tblptru,f,c
  2120  00126C                     	endif
  2121  00126C  0009               	tblrd		*+
  2122  00126E  CFF5 F030          	movff	tablat,??_i2c_ISR
  2123  001272  0009               	tblrd		*+
  2124  001274  CFF5 F031          	movff	tablat,??_i2c_ISR+1
  2125  001278  D801               	call	i2u87_48
  2126  00127A  D009               	goto	i2u87_49
  2127  00127C                     i2u87_48:
  2128  00127C  0005               	push	
  2129  00127E  6EFA               	movwf	pclath,c
  2130  001280  5030               	movf	??_i2c_ISR,w,c
  2131  001282  6EFD               	movwf	tosl,c
  2132  001284  5031               	movf	??_i2c_ISR+1,w,c
  2133  001286  6EFE               	movwf	tosh,c
  2134  001288  6AFF               	clrf	tosu,c
  2135  00128A  50FA               	movf	pclath,w,c
  2136  00128C  0012               	return		;indir
  2137  00128E                     i2u87_49:
  2138  00128E  6E0B               	movwf	_i2c_status+10,c
  2139  001290  0012               	return		;funcret
  2140  001292                     __end_of_i2c_ISR:
  2141                           	opt callstack 0
  2142                           
  2143 ;; *************** function _mssp1_clearIRQ *****************
  2144 ;; Defined at:
  2145 ;;		line 53 in file "mcc_generated_files/i2c1_driver.c"
  2146 ;; Parameters:    Size  Location     Type
  2147 ;;		None
  2148 ;; Auto vars:     Size  Location     Type
  2149 ;;		None
  2150 ;; Return value:  Size  Location     Type
  2151 ;;                  1    wreg      void 
  2152 ;; Registers used:
  2153 ;;		None
  2154 ;; Tracked objects:
  2155 ;;		On entry : 0/0
  2156 ;;		On exit  : 0/0
  2157 ;;		Unchanged: 0/0
  2158 ;; Data sizes:     COMRAM   BANK0   BANK1   BANK2   BANK3   BANK4   BANK5   BANK6   BANK7   BANK8   BANK9  BANK10  BANK1
      +1  BANK12  BANK13  BANK14
  2159 ;;      Params:         0       0       0       0       0       0       0       0       0       0       0       0       
      +0       0       0       0
  2160 ;;      Locals:         0       0       0       0       0       0       0       0       0       0       0       0       
      +0       0       0       0
  2161 ;;      Temps:          0       0       0       0       0       0       0       0       0       0       0       0       
      +0       0       0       0
  2162 ;;      Totals:         0       0       0       0       0       0       0       0       0       0       0       0       
      +0       0       0       0
  2163 ;;Total ram usage:        0 bytes
  2164 ;; Hardware stack levels used:    1
  2165 ;; This function calls:
  2166 ;;		Nothing
  2167 ;; This function is called by:
  2168 ;;		_i2c_ISR
  2169 ;;		_i2c_open
  2170 ;;		_i2c_close
  2171 ;; This function uses a non-reentrant model
  2172 ;;
  2173                           
  2174                           	psect	text21
  2175  0015CC                     __ptext21:
  2176                           	opt callstack 0
  2177  0015CC                     _mssp1_clearIRQ:
  2178                           	opt callstack 25
  2179                           
  2180                           ;i2c1_driver.c: 55: PIR3bits.SSP1IF = 0;
  2181                           
  2182                           ;incstack = 0
  2183  0015CC  010E               	movlb	14	; () banked
  2184  0015CE  91CD               	bcf	205,0,b	;volatile
  2185                           
  2186                           ; BSR set to: 14
  2187  0015D0  0012               	return		;funcret
  2188  0015D2                     __end_of_mssp1_clearIRQ:
  2189                           	opt callstack 0
  2190                           
  2191 ;; *************** function _do_I2C_RX *****************
  2192 ;; Defined at:
  2193 ;;		line 357 in file "mcc_generated_files/drivers/i2c_master.c"
  2194 ;; Parameters:    Size  Location     Type
  2195 ;;		None
  2196 ;; Auto vars:     Size  Location     Type
  2197 ;;		None
  2198 ;; Return value:  Size  Location     Type
  2199 ;;                  1    wreg      enum E10258
  2200 ;; Registers used:
  2201 ;;		wreg, fsr2l, fsr2h, status,2, status,0, pclath, tosl, cstack
  2202 ;; Tracked objects:
  2203 ;;		On entry : 0/0
  2204 ;;		On exit  : 0/0
  2205 ;;		Unchanged: 0/0
  2206 ;; Data sizes:     COMRAM   BANK0   BANK1   BANK2   BANK3   BANK4   BANK5   BANK6   BANK7   BANK8   BANK9  BANK10  BANK1
      +1  BANK12  BANK13  BANK14
  2207 ;;      Params:         0       0       0       0       0       0       0       0       0       0       0       0       
      +0       0       0       0
  2208 ;;      Locals:         0       0       0       0       0       0       0       0       0       0       0       0       
      +0       0       0       0
  2209 ;;      Temps:          0       0       0       0       0       0       0       0       0       0       0       0       
      +0       0       0       0
  2210 ;;      Totals:         0       0       0       0       0       0       0       0       0       0       0       0       
      +0       0       0       0
  2211 ;;Total ram usage:        0 bytes
  2212 ;; Hardware stack levels used:    1
  2213 ;; Hardware stack levels required when called:    2
  2214 ;; This function calls:
  2215 ;;		_do_I2C_DO_NACK_RESTART
  2216 ;;		_do_I2C_DO_NACK_STOP
  2217 ;;		_i2c1_driver_getRXData
  2218 ;;		_i2c1_driver_sendACK
  2219 ;;		_returnReset
  2220 ;;		_returnStop
  2221 ;; This function is called by:
  2222 ;;		_i2c_ISR
  2223 ;; This function uses a non-reentrant model
  2224 ;;
  2225                           
  2226                           	psect	text22
  2227  001122                     __ptext22:
  2228                           	opt callstack 0
  2229  001122                     _do_I2C_RX:
  2230                           	opt callstack 23
  2231                           
  2232                           ;i2c_master.c: 359: *i2c_status.data_ptr++ = i2c1_driver_getRXData();
  2233                           
  2234                           ; BSR set to: 14
  2235                           ;incstack = 0
  2236  001122  ECF4  F00A         	call	_i2c1_driver_getRXData	;wreg free
  2237  001126  C003  FFD9         	movff	_i2c_status+2,fsr2l
  2238  00112A  C004  FFDA         	movff	_i2c_status+3,fsr2h
  2239  00112E  6EDF               	movwf	indf2,c
  2240  001130  4A03               	infsnz	_i2c_status+2,f,c
  2241  001132  2A04               	incf	_i2c_status+3,f,c
  2242                           
  2243                           ;i2c_master.c: 360: if(--i2c_status.data_length)
  2244  001134  0605               	decf	_i2c_status+4,f,c
  2245  001136  A0D8               	btfss	status,0,c
  2246  001138  0606               	decf	_i2c_status+5,f,c
  2247  00113A  5005               	movf	_i2c_status+4,w,c
  2248  00113C  1006               	iorwf	_i2c_status+5,w,c
  2249  00113E  B4D8               	btfsc	status,2,c
  2250  001140  D004               	goto	i2l173
  2251                           
  2252                           ;i2c_master.c: 361: {;i2c_master.c: 362: i2c1_driver_sendACK();
  2253  001142  ECEF  F00A         	call	_i2c1_driver_sendACK	;wreg free
  2254                           
  2255                           ;i2c_master.c: 363: return I2C_RCEN;
  2256  001146  0E05               	movlw	5
  2257  001148  0012               	return	
  2258  00114A                     i2l173:
  2259                           
  2260                           ;i2c_master.c: 365: else;i2c_master.c: 366: {;i2c_master.c: 367: i2c_status.bufferFree =
      +                           1;
  2261  00114A  8401               	bsf	_i2c_status,2,c
  2262                           
  2263                           ;i2c_master.c: 368: switch(i2c_status.callbackTable[i2c_dataComplete](i2c_status.callbac
      +                          kPayload[i2c_dataComplete]))
  2264  00114C  D006               	goto	i2l2716
  2265  00114E                     i2l2706:
  2266                           
  2267                           ;i2c_master.c: 371: case i2c_restart_read:;i2c_master.c: 372: return do_I2C_DO_NACK_REST
      +                          ART();
  2268  00114E  ECC0  F00A         	call	_do_I2C_DO_NACK_RESTART	;wreg free
  2269  001152  0012               	return	
  2270  001154                     i2l2710:
  2271                           
  2272                           ;i2c_master.c: 375: case i2c_stop:;i2c_master.c: 376: return do_I2C_DO_NACK_STOP();
  2273  001154  ECC4  F00A         	call	_do_I2C_DO_NACK_STOP	;wreg free
  2274  001158  0012               	return	
  2275  00115A                     i2l2716:
  2276  00115A  C019  F02D         	movff	_i2c_status+24,returnReset@p
  2277  00115E  C01A  F02E         	movff	_i2c_status+25,returnReset@p+1
  2278  001162  D801               	call	i2u76_48
  2279  001164  D009               	goto	i2u76_49
  2280  001166                     i2u76_48:
  2281  001166  0005               	push	
  2282  001168  6EFA               	movwf	pclath,c
  2283  00116A  500D               	movf	_i2c_status+12,w,c
  2284  00116C  6EFD               	movwf	tosl,c
  2285  00116E  500E               	movf	_i2c_status+13,w,c
  2286  001170  6EFE               	movwf	tosh,c
  2287  001172  6AFF               	clrf	tosu,c
  2288  001174  50FA               	movf	pclath,w,c
  2289  001176  0012               	return		;indir
  2290  001178                     i2u76_49:
  2291                           
  2292                           ; Switch size 1, requested type "simple"
  2293                           ; Number of cases is 4, Range of values is 1 to 4
  2294                           ; switch strategies available:
  2295                           ; Name         Instructions Cycles
  2296                           ; simple_byte           13     7 (average)
  2297                           ;	Chosen strategy is simple_byte
  2298  001178  0A01               	xorlw	1	; case 1
  2299  00117A  B4D8               	btfsc	status,2,c
  2300  00117C  D7EB               	goto	i2l2710
  2301  00117E  0A03               	xorlw	3	; case 2
  2302  001180  B4D8               	btfsc	status,2,c
  2303  001182  D7E5               	goto	i2l2706
  2304  001184  0A01               	xorlw	1	; case 3
  2305  001186  B4D8               	btfsc	status,2,c
  2306  001188  D7E2               	goto	i2l2706
  2307  00118A  0A07               	xorlw	7	; case 4
  2308  00118C  D7E3               	goto	i2l2710
  2309  00118E                     __end_of_do_I2C_RX:
  2310                           	opt callstack 0
  2311                           
  2312 ;; *************** function _do_I2C_TX *****************
  2313 ;; Defined at:
  2314 ;;		line 333 in file "mcc_generated_files/drivers/i2c_master.c"
  2315 ;; Parameters:    Size  Location     Type
  2316 ;;		None
  2317 ;; Auto vars:     Size  Location     Type
  2318 ;;		None
  2319 ;; Return value:  Size  Location     Type
  2320 ;;                  1    wreg      enum E10258
  2321 ;; Registers used:
  2322 ;;		wreg, fsr2l, fsr2h, status,2, status,0, pclath, tosl, cstack
  2323 ;; Tracked objects:
  2324 ;;		On entry : 0/0
  2325 ;;		On exit  : 0/0
  2326 ;;		Unchanged: 0/0
  2327 ;; Data sizes:     COMRAM   BANK0   BANK1   BANK2   BANK3   BANK4   BANK5   BANK6   BANK7   BANK8   BANK9  BANK10  BANK1
      +1  BANK12  BANK13  BANK14
  2328 ;;      Params:         0       0       0       0       0       0       0       0       0       0       0       0       
      +0       0       0       0
  2329 ;;      Locals:         2       0       0       0       0       0       0       0       0       0       0       0       
      +0       0       0       0
  2330 ;;      Temps:          0       0       0       0       0       0       0       0       0       0       0       0       
      +0       0       0       0
  2331 ;;      Totals:         2       0       0       0       0       0       0       0       0       0       0       0       
      +0       0       0       0
  2332 ;;Total ram usage:        2 bytes
  2333 ;; Hardware stack levels used:    1
  2334 ;; Hardware stack levels required when called:    2
  2335 ;; This function calls:
  2336 ;;		_do_I2C_SEND_RESTART_READ
  2337 ;;		_do_I2C_SEND_RESTART_WRITE
  2338 ;;		_do_I2C_SEND_STOP
  2339 ;;		_i2c1_driver_TXData
  2340 ;;		_i2c1_driver_isNACK
  2341 ;;		_returnReset
  2342 ;;		_returnStop
  2343 ;; This function is called by:
  2344 ;;		_i2c_ISR
  2345 ;; This function uses a non-reentrant model
  2346 ;;
  2347                           
  2348                           	psect	text23
  2349  001026                     __ptext23:
  2350                           	opt callstack 0
  2351  001026                     _do_I2C_TX:
  2352                           	opt callstack 23
  2353                           
  2354                           ;i2c_master.c: 335: if(i2c1_driver_isNACK())
  2355                           
  2356                           ;incstack = 0
  2357  001026  EC71  F00A         	call	_i2c1_driver_isNACK	;wreg free
  2358  00102A  B0D8               	btfsc	status,0,c
  2359  00102C  D00A               	goto	i2l2680
  2360  00102E  D023               	goto	i2l157
  2361  001030                     i2l2666:
  2362                           
  2363                           ;i2c_master.c: 340: return do_I2C_SEND_RESTART_READ();
  2364  001030  ECD8  F00A         	call	_do_I2C_SEND_RESTART_READ	;wreg free
  2365  001034  0012               	return	
  2366  001036                     i2l2670:
  2367                           
  2368                           ;i2c_master.c: 342: return do_I2C_SEND_RESTART_WRITE();
  2369  001036  ECD4  F00A         	call	_do_I2C_SEND_RESTART_WRITE	;wreg free
  2370  00103A  0012               	return	
  2371  00103C                     i2l2674:
  2372                           
  2373                           ;i2c_master.c: 345: case i2c_stop:;i2c_master.c: 346: return do_I2C_SEND_STOP();
  2374  00103C  ECCC  F00A         	call	_do_I2C_SEND_STOP	;wreg free
  2375  001040  0012               	return	
  2376  001042                     i2l2680:
  2377  001042  C01F  F02D         	movff	_i2c_status+30,returnReset@p
  2378  001046  C020  F02E         	movff	_i2c_status+31,returnReset@p+1
  2379  00104A  D801               	call	i2u73_48
  2380  00104C  D009               	goto	i2u73_49
  2381  00104E                     i2u73_48:
  2382  00104E  0005               	push	
  2383  001050  6EFA               	movwf	pclath,c
  2384  001052  5013               	movf	_i2c_status+18,w,c
  2385  001054  6EFD               	movwf	tosl,c
  2386  001056  5014               	movf	_i2c_status+19,w,c
  2387  001058  6EFE               	movwf	tosh,c
  2388  00105A  6AFF               	clrf	tosu,c
  2389  00105C  50FA               	movf	pclath,w,c
  2390  00105E  0012               	return		;indir
  2391  001060                     i2u73_49:
  2392                           
  2393                           ; Switch size 1, requested type "simple"
  2394                           ; Number of cases is 4, Range of values is 1 to 4
  2395                           ; switch strategies available:
  2396                           ; Name         Instructions Cycles
  2397                           ; simple_byte           13     7 (average)
  2398                           ;	Chosen strategy is simple_byte
  2399  001060  0A01               	xorlw	1	; case 1
  2400  001062  B4D8               	btfsc	status,2,c
  2401  001064  D7EB               	goto	i2l2674
  2402  001066  0A03               	xorlw	3	; case 2
  2403  001068  B4D8               	btfsc	status,2,c
  2404  00106A  D7E2               	goto	i2l2666
  2405  00106C  0A01               	xorlw	1	; case 3
  2406  00106E  B4D8               	btfsc	status,2,c
  2407  001070  D7E2               	goto	i2l2670
  2408  001072  0A07               	xorlw	7	; case 4
  2409  001074  D7E3               	goto	i2l2674
  2410  001076                     i2l157:
  2411                           
  2412                           ;i2c_master.c: 349: else;i2c_master.c: 350: {;i2c_master.c: 351: i2c_status.addressNACKC
      +                          heck = 0;
  2413  001076  9601               	bcf	_i2c_status,3,c
  2414                           
  2415                           ;i2c_master.c: 352: i2c1_driver_TXData(*i2c_status.data_ptr++);
  2416  001078  C003  FFD9         	movff	_i2c_status+2,fsr2l
  2417  00107C  C004  FFDA         	movff	_i2c_status+3,fsr2h
  2418  001080  4A03               	infsnz	_i2c_status+2,f,c
  2419  001082  2A04               	incf	_i2c_status+3,f,c
  2420  001084  50DF               	movf	indf2,w,c
  2421  001086  ECDC  F00A         	call	_i2c1_driver_TXData
  2422                           
  2423                           ;i2c_master.c: 353: return (--i2c_status.data_length)?I2C_TX:I2C_TX_EMPTY;
  2424  00108A  0605               	decf	_i2c_status+4,f,c
  2425  00108C  A0D8               	btfss	status,0,c
  2426  00108E  0606               	decf	_i2c_status+5,f,c
  2427  001090  5005               	movf	_i2c_status+4,w,c
  2428  001092  1006               	iorwf	_i2c_status+5,w,c
  2429  001094  A4D8               	btfss	status,2,c
  2430  001096  D004               	goto	i2l2688
  2431  001098  0E00               	movlw	0
  2432  00109A  6E2F               	movwf	_do_I2C_TX$306+1,c
  2433  00109C  0E06               	movlw	6
  2434  00109E  D003               	goto	L2
  2435  0010A0                     i2l2688:
  2436  0010A0  0E00               	movlw	0
  2437  0010A2  6E2F               	movwf	_do_I2C_TX$306+1,c
  2438  0010A4  0E03               	movlw	3
  2439  0010A6                     L2:
  2440  0010A6  6E2E               	movwf	_do_I2C_TX$306,c
  2441  0010A8  502E               	movf	_do_I2C_TX$306,w,c
  2442  0010AA  0012               	return		;funcret
  2443  0010AC                     __end_of_do_I2C_TX:
  2444                           	opt callstack 0
  2445                           
  2446 ;; *************** function _do_I2C_DO_ADDRESS_NACK *****************
  2447 ;; Defined at:
  2448 ;;		line 319 in file "mcc_generated_files/drivers/i2c_master.c"
  2449 ;; Parameters:    Size  Location     Type
  2450 ;;		None
  2451 ;; Auto vars:     Size  Location     Type
  2452 ;;		None
  2453 ;; Return value:  Size  Location     Type
  2454 ;;                  1    wreg      enum E10258
  2455 ;; Registers used:
  2456 ;;		wreg, status,2, status,0, pclath, tosl, cstack
  2457 ;; Tracked objects:
  2458 ;;		On entry : 0/0
  2459 ;;		On exit  : 0/0
  2460 ;;		Unchanged: 0/0
  2461 ;; Data sizes:     COMRAM   BANK0   BANK1   BANK2   BANK3   BANK4   BANK5   BANK6   BANK7   BANK8   BANK9  BANK10  BANK1
      +1  BANK12  BANK13  BANK14
  2462 ;;      Params:         0       0       0       0       0       0       0       0       0       0       0       0       
      +0       0       0       0
  2463 ;;      Locals:         0       0       0       0       0       0       0       0       0       0       0       0       
      +0       0       0       0
  2464 ;;      Temps:          0       0       0       0       0       0       0       0       0       0       0       0       
      +0       0       0       0
  2465 ;;      Totals:         0       0       0       0       0       0       0       0       0       0       0       0       
      +0       0       0       0
  2466 ;;Total ram usage:        0 bytes
  2467 ;; Hardware stack levels used:    1
  2468 ;; Hardware stack levels required when called:    2
  2469 ;; This function calls:
  2470 ;;		_do_I2C_SEND_RESTART
  2471 ;;		_do_I2C_SEND_STOP
  2472 ;;		_returnReset
  2473 ;;		_returnStop
  2474 ;; This function is called by:
  2475 ;;		_i2c_ISR
  2476 ;; This function uses a non-reentrant model
  2477 ;;
  2478                           
  2479                           	psect	text24
  2480  0012E2                     __ptext24:
  2481                           	opt callstack 0
  2482  0012E2                     _do_I2C_DO_ADDRESS_NACK:
  2483                           	opt callstack 23
  2484                           
  2485                           ;i2c_master.c: 321: i2c_status.addressNACKCheck = 0;
  2486                           
  2487                           ;incstack = 0
  2488  0012E2  9601               	bcf	_i2c_status,3,c
  2489                           
  2490                           ;i2c_master.c: 322: i2c_status.error = I2C_FAIL;
  2491  0012E4  0E02               	movlw	2
  2492  0012E6  6E0C               	movwf	_i2c_status+11,c
  2493                           
  2494                           ;i2c_master.c: 323: switch(i2c_status.callbackTable[i2c_addressNACK](i2c_status.callback
      +                          Payload[i2c_addressNACK]))
  2495  0012E8  D006               	goto	i2l2660
  2496  0012EA                     i2l2650:
  2497                           
  2498                           ;i2c_master.c: 326: case i2c_restart_write:;i2c_master.c: 327: return do_I2C_SEND_RESTAR
      +                          T();
  2499  0012EA  ECD0  F00A         	call	_do_I2C_SEND_RESTART	;wreg free
  2500  0012EE  0012               	return	
  2501  0012F0                     i2l2654:
  2502                           
  2503                           ;i2c_master.c: 329: return do_I2C_SEND_STOP();
  2504  0012F0  ECCC  F00A         	call	_do_I2C_SEND_STOP	;wreg free
  2505  0012F4  0012               	return	
  2506  0012F6                     i2l2660:
  2507  0012F6  C01D  F02D         	movff	_i2c_status+28,returnReset@p
  2508  0012FA  C01E  F02E         	movff	_i2c_status+29,returnReset@p+1
  2509  0012FE  D801               	call	i2u71_48
  2510  001300  D009               	goto	i2u71_49
  2511  001302                     i2u71_48:
  2512  001302  0005               	push	
  2513  001304  6EFA               	movwf	pclath,c
  2514  001306  5011               	movf	_i2c_status+16,w,c
  2515  001308  6EFD               	movwf	tosl,c
  2516  00130A  5012               	movf	_i2c_status+17,w,c
  2517  00130C  6EFE               	movwf	tosh,c
  2518  00130E  6AFF               	clrf	tosu,c
  2519  001310  50FA               	movf	pclath,w,c
  2520  001312  0012               	return		;indir
  2521  001314                     i2u71_49:
  2522                           
  2523                           ; Switch size 1, requested type "simple"
  2524                           ; Number of cases is 2, Range of values is 2 to 3
  2525                           ; switch strategies available:
  2526                           ; Name         Instructions Cycles
  2527                           ; simple_byte            7     4 (average)
  2528                           ;	Chosen strategy is simple_byte
  2529  001314  0A02               	xorlw	2	; case 2
  2530  001316  B4D8               	btfsc	status,2,c
  2531  001318  D7E8               	goto	i2l2650
  2532  00131A  0A01               	xorlw	1	; case 3
  2533  00131C  B4D8               	btfsc	status,2,c
  2534  00131E  D7E5               	goto	i2l2650
  2535  001320  D7E7               	goto	i2l2654
  2536  001322                     __end_of_do_I2C_DO_ADDRESS_NACK:
  2537                           	opt callstack 0
  2538                           
  2539 ;; *************** function _do_I2C_DO_NACK_RESTART *****************
  2540 ;; Defined at:
  2541 ;;		line 311 in file "mcc_generated_files/drivers/i2c_master.c"
  2542 ;; Parameters:    Size  Location     Type
  2543 ;;		None
  2544 ;; Auto vars:     Size  Location     Type
  2545 ;;		None
  2546 ;; Return value:  Size  Location     Type
  2547 ;;                  1    wreg      enum E10258
  2548 ;; Registers used:
  2549 ;;		wreg, cstack
  2550 ;; Tracked objects:
  2551 ;;		On entry : 0/0
  2552 ;;		On exit  : 0/0
  2553 ;;		Unchanged: 0/0
  2554 ;; Data sizes:     COMRAM   BANK0   BANK1   BANK2   BANK3   BANK4   BANK5   BANK6   BANK7   BANK8   BANK9  BANK10  BANK1
      +1  BANK12  BANK13  BANK14
  2555 ;;      Params:         0       0       0       0       0       0       0       0       0       0       0       0       
      +0       0       0       0
  2556 ;;      Locals:         0       0       0       0       0       0       0       0       0       0       0       0       
      +0       0       0       0
  2557 ;;      Temps:          0       0       0       0       0       0       0       0       0       0       0       0       
      +0       0       0       0
  2558 ;;      Totals:         0       0       0       0       0       0       0       0       0       0       0       0       
      +0       0       0       0
  2559 ;;Total ram usage:        0 bytes
  2560 ;; Hardware stack levels used:    1
  2561 ;; Hardware stack levels required when called:    1
  2562 ;; This function calls:
  2563 ;;		_i2c1_driver_sendNACK
  2564 ;; This function is called by:
  2565 ;;		_do_I2C_RX
  2566 ;;		_i2c_ISR
  2567 ;; This function uses a non-reentrant model
  2568 ;;
  2569                           
  2570                           	psect	text25
  2571  001580                     __ptext25:
  2572                           	opt callstack 0
  2573  001580                     _do_I2C_DO_NACK_RESTART:
  2574                           	opt callstack 23
  2575                           
  2576                           ;i2c_master.c: 313: i2c1_driver_sendNACK();
  2577                           
  2578                           ;incstack = 0
  2579  001580  ECEC  F00A         	call	_i2c1_driver_sendNACK	;wreg free
  2580                           
  2581                           ;i2c_master.c: 314: return I2C_SEND_RESTART;
  2582  001584  0E09               	movlw	9
  2583  001586  0012               	return		;funcret
  2584  001588                     __end_of_do_I2C_DO_NACK_RESTART:
  2585                           	opt callstack 0
  2586                           
  2587 ;; *************** function _do_I2C_DO_NACK_STOP *****************
  2588 ;; Defined at:
  2589 ;;		line 305 in file "mcc_generated_files/drivers/i2c_master.c"
  2590 ;; Parameters:    Size  Location     Type
  2591 ;;		None
  2592 ;; Auto vars:     Size  Location     Type
  2593 ;;		None
  2594 ;; Return value:  Size  Location     Type
  2595 ;;                  1    wreg      enum E10258
  2596 ;; Registers used:
  2597 ;;		wreg, cstack
  2598 ;; Tracked objects:
  2599 ;;		On entry : 0/0
  2600 ;;		On exit  : 0/0
  2601 ;;		Unchanged: 0/0
  2602 ;; Data sizes:     COMRAM   BANK0   BANK1   BANK2   BANK3   BANK4   BANK5   BANK6   BANK7   BANK8   BANK9  BANK10  BANK1
      +1  BANK12  BANK13  BANK14
  2603 ;;      Params:         0       0       0       0       0       0       0       0       0       0       0       0       
      +0       0       0       0
  2604 ;;      Locals:         0       0       0       0       0       0       0       0       0       0       0       0       
      +0       0       0       0
  2605 ;;      Temps:          0       0       0       0       0       0       0       0       0       0       0       0       
      +0       0       0       0
  2606 ;;      Totals:         0       0       0       0       0       0       0       0       0       0       0       0       
      +0       0       0       0
  2607 ;;Total ram usage:        0 bytes
  2608 ;; Hardware stack levels used:    1
  2609 ;; Hardware stack levels required when called:    1
  2610 ;; This function calls:
  2611 ;;		_i2c1_driver_sendNACK
  2612 ;; This function is called by:
  2613 ;;		_do_I2C_RX
  2614 ;;		_i2c_ISR
  2615 ;; This function uses a non-reentrant model
  2616 ;;
  2617                           
  2618                           	psect	text26
  2619  001588                     __ptext26:
  2620                           	opt callstack 0
  2621  001588                     _do_I2C_DO_NACK_STOP:
  2622                           	opt callstack 23
  2623                           
  2624                           ;i2c_master.c: 307: i2c1_driver_sendNACK();
  2625                           
  2626                           ;incstack = 0
  2627  001588  ECEC  F00A         	call	_i2c1_driver_sendNACK	;wreg free
  2628                           
  2629                           ;i2c_master.c: 308: return I2C_SEND_STOP;
  2630  00158C  0E0A               	movlw	10
  2631  00158E  0012               	return		;funcret
  2632  001590                     __end_of_do_I2C_DO_NACK_STOP:
  2633                           	opt callstack 0
  2634                           
  2635 ;; *************** function _do_I2C_DO_ACK *****************
  2636 ;; Defined at:
  2637 ;;		line 299 in file "mcc_generated_files/drivers/i2c_master.c"
  2638 ;; Parameters:    Size  Location     Type
  2639 ;;		None
  2640 ;; Auto vars:     Size  Location     Type
  2641 ;;		None
  2642 ;; Return value:  Size  Location     Type
  2643 ;;                  1    wreg      enum E10258
  2644 ;; Registers used:
  2645 ;;		wreg, cstack
  2646 ;; Tracked objects:
  2647 ;;		On entry : 0/0
  2648 ;;		On exit  : 0/0
  2649 ;;		Unchanged: 0/0
  2650 ;; Data sizes:     COMRAM   BANK0   BANK1   BANK2   BANK3   BANK4   BANK5   BANK6   BANK7   BANK8   BANK9  BANK10  BANK1
      +1  BANK12  BANK13  BANK14
  2651 ;;      Params:         0       0       0       0       0       0       0       0       0       0       0       0       
      +0       0       0       0
  2652 ;;      Locals:         0       0       0       0       0       0       0       0       0       0       0       0       
      +0       0       0       0
  2653 ;;      Temps:          0       0       0       0       0       0       0       0       0       0       0       0       
      +0       0       0       0
  2654 ;;      Totals:         0       0       0       0       0       0       0       0       0       0       0       0       
      +0       0       0       0
  2655 ;;Total ram usage:        0 bytes
  2656 ;; Hardware stack levels used:    1
  2657 ;; Hardware stack levels required when called:    1
  2658 ;; This function calls:
  2659 ;;		_i2c1_driver_sendACK
  2660 ;; This function is called by:
  2661 ;;		_i2c_ISR
  2662 ;; This function uses a non-reentrant model
  2663 ;;
  2664                           
  2665                           	psect	text27
  2666  001590                     __ptext27:
  2667                           	opt callstack 0
  2668  001590                     _do_I2C_DO_ACK:
  2669                           	opt callstack 24
  2670                           
  2671                           ;i2c_master.c: 301: i2c1_driver_sendACK();
  2672                           
  2673                           ;incstack = 0
  2674  001590  ECEF  F00A         	call	_i2c1_driver_sendACK	;wreg free
  2675                           
  2676                           ;i2c_master.c: 302: return I2C_RCEN;
  2677  001594  0E05               	movlw	5
  2678  001596  0012               	return		;funcret
  2679  001598                     __end_of_do_I2C_DO_ACK:
  2680                           	opt callstack 0
  2681                           
  2682 ;; *************** function _do_I2C_RCEN *****************
  2683 ;; Defined at:
  2684 ;;		line 292 in file "mcc_generated_files/drivers/i2c_master.c"
  2685 ;; Parameters:    Size  Location     Type
  2686 ;;		None
  2687 ;; Auto vars:     Size  Location     Type
  2688 ;;		None
  2689 ;; Return value:  Size  Location     Type
  2690 ;;                  1    wreg      enum E10258
  2691 ;; Registers used:
  2692 ;;		wreg, cstack
  2693 ;; Tracked objects:
  2694 ;;		On entry : 0/0
  2695 ;;		On exit  : 0/0
  2696 ;;		Unchanged: 0/0
  2697 ;; Data sizes:     COMRAM   BANK0   BANK1   BANK2   BANK3   BANK4   BANK5   BANK6   BANK7   BANK8   BANK9  BANK10  BANK1
      +1  BANK12  BANK13  BANK14
  2698 ;;      Params:         0       0       0       0       0       0       0       0       0       0       0       0       
      +0       0       0       0
  2699 ;;      Locals:         0       0       0       0       0       0       0       0       0       0       0       0       
      +0       0       0       0
  2700 ;;      Temps:          0       0       0       0       0       0       0       0       0       0       0       0       
      +0       0       0       0
  2701 ;;      Totals:         0       0       0       0       0       0       0       0       0       0       0       0       
      +0       0       0       0
  2702 ;;Total ram usage:        0 bytes
  2703 ;; Hardware stack levels used:    1
  2704 ;; Hardware stack levels required when called:    1
  2705 ;; This function calls:
  2706 ;;		_i2c1_driver_startRX
  2707 ;; This function is called by:
  2708 ;;		_i2c_ISR
  2709 ;; This function uses a non-reentrant model
  2710 ;;
  2711                           
  2712                           	psect	text28
  2713  001558                     __ptext28:
  2714                           	opt callstack 0
  2715  001558                     _do_I2C_RCEN:
  2716                           	opt callstack 24
  2717                           
  2718                           ;i2c_master.c: 294: i2c_status.addressNACKCheck = 0;
  2719                           
  2720                           ;incstack = 0
  2721  001558  9601               	bcf	_i2c_status,3,c
  2722                           
  2723                           ;i2c_master.c: 295: i2c1_driver_startRX();
  2724  00155A  ECF6  F00A         	call	_i2c1_driver_startRX	;wreg free
  2725                           
  2726                           ;i2c_master.c: 296: return I2C_RX;
  2727  00155E  0E04               	movlw	4
  2728  001560  0012               	return		;funcret
  2729  001562                     __end_of_do_I2C_RCEN:
  2730                           	opt callstack 0
  2731                           
  2732 ;; *************** function _do_I2C_SEND_ADR_WRITE *****************
  2733 ;; Defined at:
  2734 ;;		line 285 in file "mcc_generated_files/drivers/i2c_master.c"
  2735 ;; Parameters:    Size  Location     Type
  2736 ;;		None
  2737 ;; Auto vars:     Size  Location     Type
  2738 ;;		None
  2739 ;; Return value:  Size  Location     Type
  2740 ;;                  1    wreg      enum E10258
  2741 ;; Registers used:
  2742 ;;		wreg, status,2, status,0, cstack
  2743 ;; Tracked objects:
  2744 ;;		On entry : 0/0
  2745 ;;		On exit  : 0/0
  2746 ;;		Unchanged: 0/0
  2747 ;; Data sizes:     COMRAM   BANK0   BANK1   BANK2   BANK3   BANK4   BANK5   BANK6   BANK7   BANK8   BANK9  BANK10  BANK1
      +1  BANK12  BANK13  BANK14
  2748 ;;      Params:         0       0       0       0       0       0       0       0       0       0       0       0       
      +0       0       0       0
  2749 ;;      Locals:         0       0       0       0       0       0       0       0       0       0       0       0       
      +0       0       0       0
  2750 ;;      Temps:          0       0       0       0       0       0       0       0       0       0       0       0       
      +0       0       0       0
  2751 ;;      Totals:         0       0       0       0       0       0       0       0       0       0       0       0       
      +0       0       0       0
  2752 ;;Total ram usage:        0 bytes
  2753 ;; Hardware stack levels used:    1
  2754 ;; Hardware stack levels required when called:    1
  2755 ;; This function calls:
  2756 ;;		_i2c1_driver_TXData
  2757 ;; This function is called by:
  2758 ;;		_i2c_ISR
  2759 ;; This function uses a non-reentrant model
  2760 ;;
  2761                           
  2762                           	psect	text29
  2763  0014F2                     __ptext29:
  2764                           	opt callstack 0
  2765  0014F2                     _do_I2C_SEND_ADR_WRITE:
  2766                           	opt callstack 24
  2767                           
  2768                           ;i2c_master.c: 287: i2c_status.addressNACKCheck = 1;
  2769                           
  2770                           ;incstack = 0
  2771  0014F2  8601               	bsf	_i2c_status,3,c
  2772                           
  2773                           ;i2c_master.c: 288: i2c1_driver_TXData(i2c_status.address << 1);
  2774  0014F4  5002               	movf	_i2c_status+1,w,c
  2775  0014F6  2402               	addwf	_i2c_status+1,w,c
  2776  0014F8  ECDC  F00A         	call	_i2c1_driver_TXData
  2777                           
  2778                           ;i2c_master.c: 289: return I2C_TX;
  2779  0014FC  0E03               	movlw	3
  2780  0014FE  0012               	return		;funcret
  2781  001500                     __end_of_do_I2C_SEND_ADR_WRITE:
  2782                           	opt callstack 0
  2783                           
  2784 ;; *************** function _do_I2C_SEND_ADR_READ *****************
  2785 ;; Defined at:
  2786 ;;		line 278 in file "mcc_generated_files/drivers/i2c_master.c"
  2787 ;; Parameters:    Size  Location     Type
  2788 ;;		None
  2789 ;; Auto vars:     Size  Location     Type
  2790 ;;		None
  2791 ;; Return value:  Size  Location     Type
  2792 ;;                  1    wreg      enum E10258
  2793 ;; Registers used:
  2794 ;;		wreg, status,0, cstack
  2795 ;; Tracked objects:
  2796 ;;		On entry : 0/0
  2797 ;;		On exit  : 0/0
  2798 ;;		Unchanged: 0/0
  2799 ;; Data sizes:     COMRAM   BANK0   BANK1   BANK2   BANK3   BANK4   BANK5   BANK6   BANK7   BANK8   BANK9  BANK10  BANK1
      +1  BANK12  BANK13  BANK14
  2800 ;;      Params:         0       0       0       0       0       0       0       0       0       0       0       0       
      +0       0       0       0
  2801 ;;      Locals:         0       0       0       0       0       0       0       0       0       0       0       0       
      +0       0       0       0
  2802 ;;      Temps:          0       0       0       0       0       0       0       0       0       0       0       0       
      +0       0       0       0
  2803 ;;      Totals:         0       0       0       0       0       0       0       0       0       0       0       0       
      +0       0       0       0
  2804 ;;Total ram usage:        0 bytes
  2805 ;; Hardware stack levels used:    1
  2806 ;; Hardware stack levels required when called:    1
  2807 ;; This function calls:
  2808 ;;		_i2c1_driver_TXData
  2809 ;; This function is called by:
  2810 ;;		_i2c_ISR
  2811 ;; This function uses a non-reentrant model
  2812 ;;
  2813                           
  2814                           	psect	text30
  2815  001500                     __ptext30:
  2816                           	opt callstack 0
  2817  001500                     _do_I2C_SEND_ADR_READ:
  2818                           	opt callstack 24
  2819                           
  2820                           ;i2c_master.c: 280: i2c_status.addressNACKCheck = 1;
  2821                           
  2822                           ;incstack = 0
  2823  001500  8601               	bsf	_i2c_status,3,c
  2824                           
  2825                           ;i2c_master.c: 281: i2c1_driver_TXData(i2c_status.address << 1 | 1);
  2826  001502  80D8               	bsf	status,0,c
  2827  001504  3402               	rlcf	_i2c_status+1,w,c
  2828  001506  ECDC  F00A         	call	_i2c1_driver_TXData
  2829                           
  2830                           ;i2c_master.c: 282: return I2C_RCEN;
  2831  00150A  0E05               	movlw	5
  2832  00150C  0012               	return		;funcret
  2833  00150E                     __end_of_do_I2C_SEND_ADR_READ:
  2834                           	opt callstack 0
  2835                           
  2836 ;; *************** function _do_I2C_SEND_STOP *****************
  2837 ;; Defined at:
  2838 ;;		line 272 in file "mcc_generated_files/drivers/i2c_master.c"
  2839 ;; Parameters:    Size  Location     Type
  2840 ;;		None
  2841 ;; Auto vars:     Size  Location     Type
  2842 ;;		None
  2843 ;; Return value:  Size  Location     Type
  2844 ;;                  1    wreg      enum E10258
  2845 ;; Registers used:
  2846 ;;		wreg, cstack
  2847 ;; Tracked objects:
  2848 ;;		On entry : 0/0
  2849 ;;		On exit  : 0/0
  2850 ;;		Unchanged: 0/0
  2851 ;; Data sizes:     COMRAM   BANK0   BANK1   BANK2   BANK3   BANK4   BANK5   BANK6   BANK7   BANK8   BANK9  BANK10  BANK1
      +1  BANK12  BANK13  BANK14
  2852 ;;      Params:         0       0       0       0       0       0       0       0       0       0       0       0       
      +0       0       0       0
  2853 ;;      Locals:         0       0       0       0       0       0       0       0       0       0       0       0       
      +0       0       0       0
  2854 ;;      Temps:          0       0       0       0       0       0       0       0       0       0       0       0       
      +0       0       0       0
  2855 ;;      Totals:         0       0       0       0       0       0       0       0       0       0       0       0       
      +0       0       0       0
  2856 ;;Total ram usage:        0 bytes
  2857 ;; Hardware stack levels used:    1
  2858 ;; Hardware stack levels required when called:    1
  2859 ;; This function calls:
  2860 ;;		_i2c1_driver_stop
  2861 ;; This function is called by:
  2862 ;;		_do_I2C_DO_ADDRESS_NACK
  2863 ;;		_do_I2C_TX
  2864 ;;		_do_I2C_TX_EMPTY
  2865 ;;		_i2c_ISR
  2866 ;; This function uses a non-reentrant model
  2867 ;;
  2868                           
  2869                           	psect	text31
  2870  001598                     __ptext31:
  2871                           	opt callstack 0
  2872  001598                     _do_I2C_SEND_STOP:
  2873                           	opt callstack 23
  2874                           
  2875                           ;i2c_master.c: 274: i2c1_driver_stop();
  2876                           
  2877                           ;incstack = 0
  2878  001598  ECFC  F00A         	call	_i2c1_driver_stop	;wreg free
  2879                           
  2880                           ;i2c_master.c: 275: return I2C_IDLE;
  2881  00159C  0E00               	movlw	0
  2882  00159E  0012               	return		;funcret
  2883  0015A0                     __end_of_do_I2C_SEND_STOP:
  2884                           	opt callstack 0
  2885                           
  2886 ;; *************** function _do_I2C_SEND_RESTART *****************
  2887 ;; Defined at:
  2888 ;;		line 266 in file "mcc_generated_files/drivers/i2c_master.c"
  2889 ;; Parameters:    Size  Location     Type
  2890 ;;		None
  2891 ;; Auto vars:     Size  Location     Type
  2892 ;;		None
  2893 ;; Return value:  Size  Location     Type
  2894 ;;                  1    wreg      enum E10258
  2895 ;; Registers used:
  2896 ;;		wreg, cstack
  2897 ;; Tracked objects:
  2898 ;;		On entry : 0/0
  2899 ;;		On exit  : 0/0
  2900 ;;		Unchanged: 0/0
  2901 ;; Data sizes:     COMRAM   BANK0   BANK1   BANK2   BANK3   BANK4   BANK5   BANK6   BANK7   BANK8   BANK9  BANK10  BANK1
      +1  BANK12  BANK13  BANK14
  2902 ;;      Params:         0       0       0       0       0       0       0       0       0       0       0       0       
      +0       0       0       0
  2903 ;;      Locals:         0       0       0       0       0       0       0       0       0       0       0       0       
      +0       0       0       0
  2904 ;;      Temps:          0       0       0       0       0       0       0       0       0       0       0       0       
      +0       0       0       0
  2905 ;;      Totals:         0       0       0       0       0       0       0       0       0       0       0       0       
      +0       0       0       0
  2906 ;;Total ram usage:        0 bytes
  2907 ;; Hardware stack levels used:    1
  2908 ;; Hardware stack levels required when called:    1
  2909 ;; This function calls:
  2910 ;;		_i2c1_driver_restart
  2911 ;; This function is called by:
  2912 ;;		_do_I2C_DO_ADDRESS_NACK
  2913 ;;		_do_I2C_TX_EMPTY
  2914 ;;		_i2c_ISR
  2915 ;; This function uses a non-reentrant model
  2916 ;;
  2917                           
  2918                           	psect	text32
  2919  0015A0                     __ptext32:
  2920                           	opt callstack 0
  2921  0015A0                     _do_I2C_SEND_RESTART:
  2922                           	opt callstack 23
  2923                           
  2924                           ;i2c_master.c: 268: i2c1_driver_restart();
  2925                           
  2926                           ;incstack = 0
  2927  0015A0  ECFE  F00A         	call	_i2c1_driver_restart	;wreg free
  2928                           
  2929                           ;i2c_master.c: 269: return I2C_SEND_ADR_READ;
  2930  0015A4  0E01               	movlw	1
  2931  0015A6  0012               	return		;funcret
  2932  0015A8                     __end_of_do_I2C_SEND_RESTART:
  2933                           	opt callstack 0
  2934                           
  2935 ;; *************** function _do_I2C_SEND_RESTART_WRITE *****************
  2936 ;; Defined at:
  2937 ;;		line 260 in file "mcc_generated_files/drivers/i2c_master.c"
  2938 ;; Parameters:    Size  Location     Type
  2939 ;;		None
  2940 ;; Auto vars:     Size  Location     Type
  2941 ;;		None
  2942 ;; Return value:  Size  Location     Type
  2943 ;;                  1    wreg      enum E10258
  2944 ;; Registers used:
  2945 ;;		wreg, cstack
  2946 ;; Tracked objects:
  2947 ;;		On entry : 0/0
  2948 ;;		On exit  : 0/0
  2949 ;;		Unchanged: 0/0
  2950 ;; Data sizes:     COMRAM   BANK0   BANK1   BANK2   BANK3   BANK4   BANK5   BANK6   BANK7   BANK8   BANK9  BANK10  BANK1
      +1  BANK12  BANK13  BANK14
  2951 ;;      Params:         0       0       0       0       0       0       0       0       0       0       0       0       
      +0       0       0       0
  2952 ;;      Locals:         0       0       0       0       0       0       0       0       0       0       0       0       
      +0       0       0       0
  2953 ;;      Temps:          0       0       0       0       0       0       0       0       0       0       0       0       
      +0       0       0       0
  2954 ;;      Totals:         0       0       0       0       0       0       0       0       0       0       0       0       
      +0       0       0       0
  2955 ;;Total ram usage:        0 bytes
  2956 ;; Hardware stack levels used:    1
  2957 ;; Hardware stack levels required when called:    1
  2958 ;; This function calls:
  2959 ;;		_i2c1_driver_restart
  2960 ;; This function is called by:
  2961 ;;		_do_I2C_TX
  2962 ;;		_i2c_ISR
  2963 ;; This function uses a non-reentrant model
  2964 ;;
  2965                           
  2966                           	psect	text33
  2967  0015A8                     __ptext33:
  2968                           	opt callstack 0
  2969  0015A8                     _do_I2C_SEND_RESTART_WRITE:
  2970                           	opt callstack 23
  2971                           
  2972                           ;i2c_master.c: 262: i2c1_driver_restart();
  2973                           
  2974                           ;incstack = 0
  2975  0015A8  ECFE  F00A         	call	_i2c1_driver_restart	;wreg free
  2976                           
  2977                           ;i2c_master.c: 263: return I2C_SEND_ADR_WRITE;
  2978  0015AC  0E02               	movlw	2
  2979  0015AE  0012               	return		;funcret
  2980  0015B0                     __end_of_do_I2C_SEND_RESTART_WRITE:
  2981                           	opt callstack 0
  2982                           
  2983 ;; *************** function _do_I2C_SEND_RESTART_READ *****************
  2984 ;; Defined at:
  2985 ;;		line 254 in file "mcc_generated_files/drivers/i2c_master.c"
  2986 ;; Parameters:    Size  Location     Type
  2987 ;;		None
  2988 ;; Auto vars:     Size  Location     Type
  2989 ;;		None
  2990 ;; Return value:  Size  Location     Type
  2991 ;;                  1    wreg      enum E10258
  2992 ;; Registers used:
  2993 ;;		wreg, cstack
  2994 ;; Tracked objects:
  2995 ;;		On entry : 0/0
  2996 ;;		On exit  : 0/0
  2997 ;;		Unchanged: 0/0
  2998 ;; Data sizes:     COMRAM   BANK0   BANK1   BANK2   BANK3   BANK4   BANK5   BANK6   BANK7   BANK8   BANK9  BANK10  BANK1
      +1  BANK12  BANK13  BANK14
  2999 ;;      Params:         0       0       0       0       0       0       0       0       0       0       0       0       
      +0       0       0       0
  3000 ;;      Locals:         0       0       0       0       0       0       0       0       0       0       0       0       
      +0       0       0       0
  3001 ;;      Temps:          0       0       0       0       0       0       0       0       0       0       0       0       
      +0       0       0       0
  3002 ;;      Totals:         0       0       0       0       0       0       0       0       0       0       0       0       
      +0       0       0       0
  3003 ;;Total ram usage:        0 bytes
  3004 ;; Hardware stack levels used:    1
  3005 ;; Hardware stack levels required when called:    1
  3006 ;; This function calls:
  3007 ;;		_i2c1_driver_restart
  3008 ;; This function is called by:
  3009 ;;		_do_I2C_TX
  3010 ;;		_i2c_ISR
  3011 ;; This function uses a non-reentrant model
  3012 ;;
  3013                           
  3014                           	psect	text34
  3015  0015B0                     __ptext34:
  3016                           	opt callstack 0
  3017  0015B0                     _do_I2C_SEND_RESTART_READ:
  3018                           	opt callstack 23
  3019                           
  3020                           ;i2c_master.c: 256: i2c1_driver_restart();
  3021                           
  3022                           ;incstack = 0
  3023  0015B0  ECFE  F00A         	call	_i2c1_driver_restart	;wreg free
  3024                           
  3025                           ;i2c_master.c: 257: return I2C_SEND_ADR_READ;
  3026  0015B4  0E01               	movlw	1
  3027  0015B6  0012               	return		;funcret
  3028  0015B8                     __end_of_do_I2C_SEND_RESTART_READ:
  3029                           	opt callstack 0
  3030                           
  3031 ;; *************** function _do_I2C_IDLE *****************
  3032 ;; Defined at:
  3033 ;;		line 247 in file "mcc_generated_files/drivers/i2c_master.c"
  3034 ;; Parameters:    Size  Location     Type
  3035 ;;		None
  3036 ;; Auto vars:     Size  Location     Type
  3037 ;;		None
  3038 ;; Return value:  Size  Location     Type
  3039 ;;                  1    wreg      enum E10258
  3040 ;; Registers used:
  3041 ;;		wreg, status,2
  3042 ;; Tracked objects:
  3043 ;;		On entry : 0/0
  3044 ;;		On exit  : 0/0
  3045 ;;		Unchanged: 0/0
  3046 ;; Data sizes:     COMRAM   BANK0   BANK1   BANK2   BANK3   BANK4   BANK5   BANK6   BANK7   BANK8   BANK9  BANK10  BANK1
      +1  BANK12  BANK13  BANK14
  3047 ;;      Params:         0       0       0       0       0       0       0       0       0       0       0       0       
      +0       0       0       0
  3048 ;;      Locals:         0       0       0       0       0       0       0       0       0       0       0       0       
      +0       0       0       0
  3049 ;;      Temps:          0       0       0       0       0       0       0       0       0       0       0       0       
      +0       0       0       0
  3050 ;;      Totals:         0       0       0       0       0       0       0       0       0       0       0       0       
      +0       0       0       0
  3051 ;;Total ram usage:        0 bytes
  3052 ;; Hardware stack levels used:    1
  3053 ;; This function calls:
  3054 ;;		Nothing
  3055 ;; This function is called by:
  3056 ;;		_i2c_ISR
  3057 ;; This function uses a non-reentrant model
  3058 ;;
  3059                           
  3060                           	psect	text35
  3061  001562                     __ptext35:
  3062                           	opt callstack 0
  3063  001562                     _do_I2C_IDLE:
  3064                           	opt callstack 25
  3065                           
  3066                           ;i2c_master.c: 249: i2c_status.busy = 0;
  3067                           
  3068                           ;incstack = 0
  3069  001562  9001               	bcf	_i2c_status,0,c
  3070                           
  3071                           ;i2c_master.c: 250: i2c_status.error = I2C_NOERR;
  3072  001564  0E00               	movlw	0
  3073  001566  6E0C               	movwf	_i2c_status+11,c
  3074                           
  3075                           ;i2c_master.c: 251: return I2C_RESET;
  3076  001568  0E0E               	movlw	14
  3077  00156A  0012               	return		;funcret
  3078  00156C                     __end_of_do_I2C_IDLE:
  3079                           	opt callstack 0
  3080                           
  3081 ;; *************** function _do_I2C_RESET *****************
  3082 ;; Defined at:
  3083 ;;		line 239 in file "mcc_generated_files/drivers/i2c_master.c"
  3084 ;; Parameters:    Size  Location     Type
  3085 ;;		None
  3086 ;; Auto vars:     Size  Location     Type
  3087 ;;		None
  3088 ;; Return value:  Size  Location     Type
  3089 ;;                  1    wreg      enum E10258
  3090 ;; Registers used:
  3091 ;;		wreg, status,2, cstack
  3092 ;; Tracked objects:
  3093 ;;		On entry : 0/0
  3094 ;;		On exit  : 0/0
  3095 ;;		Unchanged: 0/0
  3096 ;; Data sizes:     COMRAM   BANK0   BANK1   BANK2   BANK3   BANK4   BANK5   BANK6   BANK7   BANK8   BANK9  BANK10  BANK1
      +1  BANK12  BANK13  BANK14
  3097 ;;      Params:         0       0       0       0       0       0       0       0       0       0       0       0       
      +0       0       0       0
  3098 ;;      Locals:         0       0       0       0       0       0       0       0       0       0       0       0       
      +0       0       0       0
  3099 ;;      Temps:          0       0       0       0       0       0       0       0       0       0       0       0       
      +0       0       0       0
  3100 ;;      Totals:         0       0       0       0       0       0       0       0       0       0       0       0       
      +0       0       0       0
  3101 ;;Total ram usage:        0 bytes
  3102 ;; Hardware stack levels used:    1
  3103 ;; Hardware stack levels required when called:    1
  3104 ;; This function calls:
  3105 ;;		_i2c1_driver_resetBus
  3106 ;; This function is called by:
  3107 ;;		_i2c_ISR
  3108 ;; This function uses a non-reentrant model
  3109 ;;
  3110                           
  3111                           	psect	text36
  3112  00150E                     __ptext36:
  3113                           	opt callstack 0
  3114  00150E                     _do_I2C_RESET:
  3115                           	opt callstack 24
  3116                           
  3117                           ;i2c_master.c: 241: i2c1_driver_resetBus();
  3118                           
  3119                           ;incstack = 0
  3120  00150E  EC00  F00B         	call	_i2c1_driver_resetBus	;wreg free
  3121                           
  3122                           ;i2c_master.c: 242: i2c_status.busy = 0;
  3123  001512  9001               	bcf	_i2c_status,0,c
  3124                           
  3125                           ;i2c_master.c: 243: i2c_status.error = I2C_NOERR;
  3126  001514  0E00               	movlw	0
  3127  001516  6E0C               	movwf	_i2c_status+11,c
  3128                           
  3129                           ;i2c_master.c: 244: return I2C_RESET;
  3130  001518  0E0E               	movlw	14
  3131  00151A  0012               	return		;funcret
  3132  00151C                     __end_of_do_I2C_RESET:
  3133                           	opt callstack 0
  3134                           
  3135 ;; *************** function _do_I2C_TX_EMPTY *****************
  3136 ;; Defined at:
  3137 ;;		line 382 in file "mcc_generated_files/drivers/i2c_master.c"
  3138 ;; Parameters:    Size  Location     Type
  3139 ;;		None
  3140 ;; Auto vars:     Size  Location     Type
  3141 ;;		None
  3142 ;; Return value:  Size  Location     Type
  3143 ;;                  1    wreg      enum E10258
  3144 ;; Registers used:
  3145 ;;		wreg, status,2, status,0, pclath, tosl, cstack
  3146 ;; Tracked objects:
  3147 ;;		On entry : 0/0
  3148 ;;		On exit  : 0/0
  3149 ;;		Unchanged: 0/0
  3150 ;; Data sizes:     COMRAM   BANK0   BANK1   BANK2   BANK3   BANK4   BANK5   BANK6   BANK7   BANK8   BANK9  BANK10  BANK1
      +1  BANK12  BANK13  BANK14
  3151 ;;      Params:         0       0       0       0       0       0       0       0       0       0       0       0       
      +0       0       0       0
  3152 ;;      Locals:         0       0       0       0       0       0       0       0       0       0       0       0       
      +0       0       0       0
  3153 ;;      Temps:          0       0       0       0       0       0       0       0       0       0       0       0       
      +0       0       0       0
  3154 ;;      Totals:         0       0       0       0       0       0       0       0       0       0       0       0       
      +0       0       0       0
  3155 ;;Total ram usage:        0 bytes
  3156 ;; Hardware stack levels used:    1
  3157 ;; Hardware stack levels required when called:    2
  3158 ;; This function calls:
  3159 ;;		_do_I2C_SEND_RESTART
  3160 ;;		_do_I2C_SEND_STOP
  3161 ;;		_mssp1_setIRQ
  3162 ;;		_returnReset
  3163 ;;		_returnStop
  3164 ;; This function is called by:
  3165 ;;		_i2c_ISR
  3166 ;; This function uses a non-reentrant model
  3167 ;;
  3168                           
  3169                           	psect	text37
  3170  001292                     __ptext37:
  3171                           	opt callstack 0
  3172  001292                     _do_I2C_TX_EMPTY:
  3173                           	opt callstack 23
  3174                           
  3175                           ;i2c_master.c: 384: i2c_status.bufferFree = 1;
  3176                           
  3177                           ;incstack = 0
  3178  001292  8401               	bsf	_i2c_status,2,c
  3179                           
  3180                           ;i2c_master.c: 385: switch(i2c_status.callbackTable[i2c_dataComplete](i2c_status.callbac
      +                          kPayload[i2c_dataComplete]))
  3181  001294  D00A               	goto	i2l2736
  3182  001296                     i2l2720:
  3183                           
  3184                           ;i2c_master.c: 388: case i2c_restart_write:;i2c_master.c: 389: return do_I2C_SEND_RESTAR
      +                          T();
  3185  001296  ECD0  F00A         	call	_do_I2C_SEND_RESTART	;wreg free
  3186  00129A  0012               	return	
  3187  00129C                     i2l2724:
  3188                           
  3189                           ;i2c_master.c: 391: mssp1_setIRQ();
  3190  00129C  ECE9  F00A         	call	_mssp1_setIRQ	;wreg free
  3191                           
  3192                           ;i2c_master.c: 392: return I2C_TX;
  3193  0012A0  0E03               	movlw	3
  3194  0012A2  0012               	return	
  3195  0012A4                     i2l2730:
  3196                           
  3197                           ;i2c_master.c: 395: return do_I2C_SEND_STOP();
  3198  0012A4  ECCC  F00A         	call	_do_I2C_SEND_STOP	;wreg free
  3199  0012A8  0012               	return	
  3200  0012AA                     i2l2736:
  3201  0012AA  C019  F02D         	movff	_i2c_status+24,returnReset@p
  3202  0012AE  C01A  F02E         	movff	_i2c_status+25,returnReset@p+1
  3203  0012B2  D801               	call	i2u77_48
  3204  0012B4  D009               	goto	i2u77_49
  3205  0012B6                     i2u77_48:
  3206  0012B6  0005               	push	
  3207  0012B8  6EFA               	movwf	pclath,c
  3208  0012BA  500D               	movf	_i2c_status+12,w,c
  3209  0012BC  6EFD               	movwf	tosl,c
  3210  0012BE  500E               	movf	_i2c_status+13,w,c
  3211  0012C0  6EFE               	movwf	tosh,c
  3212  0012C2  6AFF               	clrf	tosu,c
  3213  0012C4  50FA               	movf	pclath,w,c
  3214  0012C6  0012               	return		;indir
  3215  0012C8                     i2u77_49:
  3216                           
  3217                           ; Switch size 1, requested type "simple"
  3218                           ; Number of cases is 4, Range of values is 1 to 4
  3219                           ; switch strategies available:
  3220                           ; Name         Instructions Cycles
  3221                           ; simple_byte           13     7 (average)
  3222                           ;	Chosen strategy is simple_byte
  3223  0012C8  0A01               	xorlw	1	; case 1
  3224  0012CA  B4D8               	btfsc	status,2,c
  3225  0012CC  D7EB               	goto	i2l2730
  3226  0012CE  0A03               	xorlw	3	; case 2
  3227  0012D0  B4D8               	btfsc	status,2,c
  3228  0012D2  D7E1               	goto	i2l2720
  3229  0012D4  0A01               	xorlw	1	; case 3
  3230  0012D6  B4D8               	btfsc	status,2,c
  3231  0012D8  D7DE               	goto	i2l2720
  3232  0012DA  0A07               	xorlw	7	; case 4
  3233  0012DC  B4D8               	btfsc	status,2,c
  3234  0012DE  D7DE               	goto	i2l2724
  3235  0012E0  D7E1               	goto	i2l2730
  3236  0012E2                     __end_of_do_I2C_TX_EMPTY:
  3237                           	opt callstack 0
  3238                           
  3239 ;; *************** function _mssp1_setIRQ *****************
  3240 ;; Defined at:
  3241 ;;		line 58 in file "mcc_generated_files/i2c1_driver.c"
  3242 ;; Parameters:    Size  Location     Type
  3243 ;;		None
  3244 ;; Auto vars:     Size  Location     Type
  3245 ;;		None
  3246 ;; Return value:  Size  Location     Type
  3247 ;;                  1    wreg      void 
  3248 ;; Registers used:
  3249 ;;		None
  3250 ;; Tracked objects:
  3251 ;;		On entry : 0/0
  3252 ;;		On exit  : 0/0
  3253 ;;		Unchanged: 0/0
  3254 ;; Data sizes:     COMRAM   BANK0   BANK1   BANK2   BANK3   BANK4   BANK5   BANK6   BANK7   BANK8   BANK9  BANK10  BANK1
      +1  BANK12  BANK13  BANK14
  3255 ;;      Params:         0       0       0       0       0       0       0       0       0       0       0       0       
      +0       0       0       0
  3256 ;;      Locals:         0       0       0       0       0       0       0       0       0       0       0       0       
      +0       0       0       0
  3257 ;;      Temps:          0       0       0       0       0       0       0       0       0       0       0       0       
      +0       0       0       0
  3258 ;;      Totals:         0       0       0       0       0       0       0       0       0       0       0       0       
      +0       0       0       0
  3259 ;;Total ram usage:        0 bytes
  3260 ;; Hardware stack levels used:    1
  3261 ;; This function calls:
  3262 ;;		Nothing
  3263 ;; This function is called by:
  3264 ;;		_do_I2C_TX_EMPTY
  3265 ;; This function uses a non-reentrant model
  3266 ;;
  3267                           
  3268                           	psect	text38
  3269  0015D2                     __ptext38:
  3270                           	opt callstack 0
  3271  0015D2                     _mssp1_setIRQ:
  3272                           	opt callstack 24
  3273                           
  3274                           ;i2c1_driver.c: 60: PIR3bits.SSP1IF = 1;
  3275                           
  3276                           ;incstack = 0
  3277  0015D2  010E               	movlb	14	; () banked
  3278  0015D4  81CD               	bsf	205,0,b	;volatile
  3279                           
  3280                           ; BSR set to: 14
  3281  0015D6  0012               	return		;funcret
  3282  0015D8                     __end_of_mssp1_setIRQ:
  3283                           	opt callstack 0
  3284                           
  3285 ;; *************** function _i2c1_driver_isNACK *****************
  3286 ;; Defined at:
  3287 ;;		line 161 in file "mcc_generated_files/i2c1_driver.c"
  3288 ;; Parameters:    Size  Location     Type
  3289 ;;		None
  3290 ;; Auto vars:     Size  Location     Type
  3291 ;;		None
  3292 ;; Return value:  Size  Location     Type
  3293 ;;		None               void
  3294 ;; Registers used:
  3295 ;;		wreg, status,0
  3296 ;; Tracked objects:
  3297 ;;		On entry : 0/0
  3298 ;;		On exit  : 0/0
  3299 ;;		Unchanged: 0/0
  3300 ;; Data sizes:     COMRAM   BANK0   BANK1   BANK2   BANK3   BANK4   BANK5   BANK6   BANK7   BANK8   BANK9  BANK10  BANK1
      +1  BANK12  BANK13  BANK14
  3301 ;;      Params:         0       0       0       0       0       0       0       0       0       0       0       0       
      +0       0       0       0
  3302 ;;      Locals:         0       0       0       0       0       0       0       0       0       0       0       0       
      +0       0       0       0
  3303 ;;      Temps:          1       0       0       0       0       0       0       0       0       0       0       0       
      +0       0       0       0
  3304 ;;      Totals:         1       0       0       0       0       0       0       0       0       0       0       0       
      +0       0       0       0
  3305 ;;Total ram usage:        1 bytes
  3306 ;; Hardware stack levels used:    1
  3307 ;; This function calls:
  3308 ;;		Nothing
  3309 ;; This function is called by:
  3310 ;;		_do_I2C_TX
  3311 ;;		_i2c_ISR
  3312 ;; This function uses a non-reentrant model
  3313 ;;
  3314                           
  3315                           	psect	text39
  3316  0014E2                     __ptext39:
  3317                           	opt callstack 0
  3318  0014E2                     _i2c1_driver_isNACK:
  3319                           	opt callstack 25
  3320                           
  3321                           ;i2c1_driver.c: 163: return SSP1CON2bits.ACKSTAT;
  3322                           
  3323                           ; BSR set to: 14
  3324                           ;incstack = 0
  3325  0014E2  AC97               	btfss	3991,6,c	;volatile
  3326  0014E4  D003               	goto	i2u70_40
  3327  0014E6  6A2D               	clrf	??_i2c1_driver_isNACK& (0+255),c
  3328  0014E8  2A2D               	incf	??_i2c1_driver_isNACK& (0+255),f,c
  3329  0014EA  D001               	goto	i2u70_48
  3330  0014EC                     i2u70_40:
  3331  0014EC  6A2D               	clrf	??_i2c1_driver_isNACK& (0+255),c
  3332  0014EE                     i2u70_48:
  3333  0014EE  302D               	rrcf	??_i2c1_driver_isNACK,w,c
  3334  0014F0  0012               	return		;funcret
  3335  0014F2                     __end_of_i2c1_driver_isNACK:
  3336                           	opt callstack 0
  3337                           
  3338 ;; *************** function _i2c1_driver_TXData *****************
  3339 ;; Defined at:
  3340 ;;		line 186 in file "mcc_generated_files/i2c1_driver.c"
  3341 ;; Parameters:    Size  Location     Type
  3342 ;;  d               1    wreg     unsigned char 
  3343 ;; Auto vars:     Size  Location     Type
  3344 ;;  d               1    0[COMRAM] unsigned char 
  3345 ;; Return value:  Size  Location     Type
  3346 ;;                  1    wreg      void 
  3347 ;; Registers used:
  3348 ;;		wreg
  3349 ;; Tracked objects:
  3350 ;;		On entry : 0/0
  3351 ;;		On exit  : 0/0
  3352 ;;		Unchanged: 0/0
  3353 ;; Data sizes:     COMRAM   BANK0   BANK1   BANK2   BANK3   BANK4   BANK5   BANK6   BANK7   BANK8   BANK9  BANK10  BANK1
      +1  BANK12  BANK13  BANK14
  3354 ;;      Params:         0       0       0       0       0       0       0       0       0       0       0       0       
      +0       0       0       0
  3355 ;;      Locals:         1       0       0       0       0       0       0       0       0       0       0       0       
      +0       0       0       0
  3356 ;;      Temps:          0       0       0       0       0       0       0       0       0       0       0       0       
      +0       0       0       0
  3357 ;;      Totals:         1       0       0       0       0       0       0       0       0       0       0       0       
      +0       0       0       0
  3358 ;;Total ram usage:        1 bytes
  3359 ;; Hardware stack levels used:    1
  3360 ;; This function calls:
  3361 ;;		Nothing
  3362 ;; This function is called by:
  3363 ;;		_do_I2C_SEND_ADR_READ
  3364 ;;		_do_I2C_SEND_ADR_WRITE
  3365 ;;		_do_I2C_TX
  3366 ;; This function uses a non-reentrant model
  3367 ;;
  3368                           
  3369                           	psect	text40
  3370  0015B8                     __ptext40:
  3371                           	opt callstack 0
  3372  0015B8                     _i2c1_driver_TXData:
  3373                           	opt callstack 24
  3374                           
  3375                           ;incstack = 0
  3376                           ;i2c1_driver_TXData@d stored from wreg
  3377  0015B8  6E2D               	movwf	i2c1_driver_TXData@d,c
  3378                           
  3379                           ;i2c1_driver.c: 188: SSP1BUF = d;
  3380  0015BA  C02D  FF92         	movff	i2c1_driver_TXData@d,3986	;volatile
  3381  0015BE  0012               	return		;funcret
  3382  0015C0                     __end_of_i2c1_driver_TXData:
  3383                           	opt callstack 0
  3384                           
  3385 ;; *************** function _i2c1_driver_getRXData *****************
  3386 ;; Defined at:
  3387 ;;		line 171 in file "mcc_generated_files/i2c1_driver.c"
  3388 ;; Parameters:    Size  Location     Type
  3389 ;;		None
  3390 ;; Auto vars:     Size  Location     Type
  3391 ;;		None
  3392 ;; Return value:  Size  Location     Type
  3393 ;;                  1    wreg      unsigned char 
  3394 ;; Registers used:
  3395 ;;		wreg, status,2
  3396 ;; Tracked objects:
  3397 ;;		On entry : 0/0
  3398 ;;		On exit  : 0/0
  3399 ;;		Unchanged: 0/0
  3400 ;; Data sizes:     COMRAM   BANK0   BANK1   BANK2   BANK3   BANK4   BANK5   BANK6   BANK7   BANK8   BANK9  BANK10  BANK1
      +1  BANK12  BANK13  BANK14
  3401 ;;      Params:         0       0       0       0       0       0       0       0       0       0       0       0       
      +0       0       0       0
  3402 ;;      Locals:         0       0       0       0       0       0       0       0       0       0       0       0       
      +0       0       0       0
  3403 ;;      Temps:          0       0       0       0       0       0       0       0       0       0       0       0       
      +0       0       0       0
  3404 ;;      Totals:         0       0       0       0       0       0       0       0       0       0       0       0       
      +0       0       0       0
  3405 ;;Total ram usage:        0 bytes
  3406 ;; Hardware stack levels used:    1
  3407 ;; This function calls:
  3408 ;;		Nothing
  3409 ;; This function is called by:
  3410 ;;		_do_I2C_RX
  3411 ;; This function uses a non-reentrant model
  3412 ;;
  3413                           
  3414                           	psect	text41
  3415  0015E8                     __ptext41:
  3416                           	opt callstack 0
  3417  0015E8                     _i2c1_driver_getRXData:
  3418                           	opt callstack 24
  3419                           
  3420                           ;i2c1_driver.c: 173: return SSP1BUF;
  3421                           
  3422                           ;incstack = 0
  3423  0015E8  5092               	movf	3986,w,c	;volatile
  3424  0015EA  0012               	return		;funcret
  3425  0015EC                     __end_of_i2c1_driver_getRXData:
  3426                           	opt callstack 0
  3427                           
  3428 ;; *************** function _i2c1_driver_sendNACK *****************
  3429 ;; Defined at:
  3430 ;;		line 202 in file "mcc_generated_files/i2c1_driver.c"
  3431 ;; Parameters:    Size  Location     Type
  3432 ;;		None
  3433 ;; Auto vars:     Size  Location     Type
  3434 ;;		None
  3435 ;; Return value:  Size  Location     Type
  3436 ;;                  1    wreg      void 
  3437 ;; Registers used:
  3438 ;;		None
  3439 ;; Tracked objects:
  3440 ;;		On entry : 0/0
  3441 ;;		On exit  : 0/0
  3442 ;;		Unchanged: 0/0
  3443 ;; Data sizes:     COMRAM   BANK0   BANK1   BANK2   BANK3   BANK4   BANK5   BANK6   BANK7   BANK8   BANK9  BANK10  BANK1
      +1  BANK12  BANK13  BANK14
  3444 ;;      Params:         0       0       0       0       0       0       0       0       0       0       0       0       
      +0       0       0       0
  3445 ;;      Locals:         0       0       0       0       0       0       0       0       0       0       0       0       
      +0       0       0       0
  3446 ;;      Temps:          0       0       0       0       0       0       0       0       0       0       0       0       
      +0       0       0       0
  3447 ;;      Totals:         0       0       0       0       0       0       0       0       0       0       0       0       
      +0       0       0       0
  3448 ;;Total ram usage:        0 bytes
  3449 ;; Hardware stack levels used:    1
  3450 ;; This function calls:
  3451 ;;		Nothing
  3452 ;; This function is called by:
  3453 ;;		_do_I2C_DO_NACK_STOP
  3454 ;;		_do_I2C_DO_NACK_RESTART
  3455 ;; This function uses a non-reentrant model
  3456 ;;
  3457                           
  3458                           	psect	text42
  3459  0015D8                     __ptext42:
  3460                           	opt callstack 0
  3461  0015D8                     _i2c1_driver_sendNACK:
  3462                           	opt callstack 23
  3463                           
  3464                           ;i2c1_driver.c: 204: SSP1CON2bits.ACKDT = 1;
  3465                           
  3466                           ;incstack = 0
  3467  0015D8  8A97               	bsf	3991,5,c	;volatile
  3468                           
  3469                           ;i2c1_driver.c: 205: SSP1CON2bits.ACKEN = 1;
  3470  0015DA  8897               	bsf	3991,4,c	;volatile
  3471  0015DC  0012               	return		;funcret
  3472  0015DE                     __end_of_i2c1_driver_sendNACK:
  3473                           	opt callstack 0
  3474                           
  3475 ;; *************** function _i2c1_driver_resetBus *****************
  3476 ;; Defined at:
  3477 ;;		line 141 in file "mcc_generated_files/i2c1_driver.c"
  3478 ;; Parameters:    Size  Location     Type
  3479 ;;		None
  3480 ;; Auto vars:     Size  Location     Type
  3481 ;;		None
  3482 ;; Return value:  Size  Location     Type
  3483 ;;                  1    wreg      void 
  3484 ;; Registers used:
  3485 ;;		None
  3486 ;; Tracked objects:
  3487 ;;		On entry : 0/0
  3488 ;;		On exit  : 0/0
  3489 ;;		Unchanged: 0/0
  3490 ;; Data sizes:     COMRAM   BANK0   BANK1   BANK2   BANK3   BANK4   BANK5   BANK6   BANK7   BANK8   BANK9  BANK10  BANK1
      +1  BANK12  BANK13  BANK14
  3491 ;;      Params:         0       0       0       0       0       0       0       0       0       0       0       0       
      +0       0       0       0
  3492 ;;      Locals:         0       0       0       0       0       0       0       0       0       0       0       0       
      +0       0       0       0
  3493 ;;      Temps:          0       0       0       0       0       0       0       0       0       0       0       0       
      +0       0       0       0
  3494 ;;      Totals:         0       0       0       0       0       0       0       0       0       0       0       0       
      +0       0       0       0
  3495 ;;Total ram usage:        0 bytes
  3496 ;; Hardware stack levels used:    1
  3497 ;; This function calls:
  3498 ;;		Nothing
  3499 ;; This function is called by:
  3500 ;;		_do_I2C_RESET
  3501 ;; This function uses a non-reentrant model
  3502 ;;
  3503                           
  3504                           	psect	text43
  3505  001600                     __ptext43:
  3506                           	opt callstack 0
  3507  001600                     _i2c1_driver_resetBus:
  3508                           	opt callstack 24
  3509                           
  3510                           ;incstack = 0
  3511  001600  0012               	return		;funcret
  3512  001602                     __end_of_i2c1_driver_resetBus:
  3513                           	opt callstack 0
  3514                           
  3515 ;; *************** function _i2c1_driver_startRX *****************
  3516 ;; Defined at:
  3517 ;;		line 166 in file "mcc_generated_files/i2c1_driver.c"
  3518 ;; Parameters:    Size  Location     Type
  3519 ;;		None
  3520 ;; Auto vars:     Size  Location     Type
  3521 ;;		None
  3522 ;; Return value:  Size  Location     Type
  3523 ;;                  1    wreg      void 
  3524 ;; Registers used:
  3525 ;;		None
  3526 ;; Tracked objects:
  3527 ;;		On entry : 0/0
  3528 ;;		On exit  : 0/0
  3529 ;;		Unchanged: 0/0
  3530 ;; Data sizes:     COMRAM   BANK0   BANK1   BANK2   BANK3   BANK4   BANK5   BANK6   BANK7   BANK8   BANK9  BANK10  BANK1
      +1  BANK12  BANK13  BANK14
  3531 ;;      Params:         0       0       0       0       0       0       0       0       0       0       0       0       
      +0       0       0       0
  3532 ;;      Locals:         0       0       0       0       0       0       0       0       0       0       0       0       
      +0       0       0       0
  3533 ;;      Temps:          0       0       0       0       0       0       0       0       0       0       0       0       
      +0       0       0       0
  3534 ;;      Totals:         0       0       0       0       0       0       0       0       0       0       0       0       
      +0       0       0       0
  3535 ;;Total ram usage:        0 bytes
  3536 ;; Hardware stack levels used:    1
  3537 ;; This function calls:
  3538 ;;		Nothing
  3539 ;; This function is called by:
  3540 ;;		_do_I2C_RCEN
  3541 ;; This function uses a non-reentrant model
  3542 ;;
  3543                           
  3544                           	psect	text44
  3545  0015EC                     __ptext44:
  3546                           	opt callstack 0
  3547  0015EC                     _i2c1_driver_startRX:
  3548                           	opt callstack 24
  3549                           
  3550                           ;i2c1_driver.c: 168: SSP1CON2bits.RCEN = 1;
  3551                           
  3552                           ;incstack = 0
  3553  0015EC  8697               	bsf	3991,3,c	;volatile
  3554  0015EE  0012               	return		;funcret
  3555  0015F0                     __end_of_i2c1_driver_startRX:
  3556                           	opt callstack 0
  3557                           
  3558 ;; *************** function _returnReset *****************
  3559 ;; Defined at:
  3560 ;;		line 448 in file "mcc_generated_files/drivers/i2c_master.c"
  3561 ;; Parameters:    Size  Location     Type
  3562 ;;  p               2    0[COMRAM] PTR void 
  3563 ;;		 -> NULL(0), 
  3564 ;; Auto vars:     Size  Location     Type
  3565 ;;		None
  3566 ;; Return value:  Size  Location     Type
  3567 ;;                  1    wreg      enum E10091
  3568 ;; Registers used:
  3569 ;;		wreg
  3570 ;; Tracked objects:
  3571 ;;		On entry : 0/0
  3572 ;;		On exit  : 0/0
  3573 ;;		Unchanged: 0/0
  3574 ;; Data sizes:     COMRAM   BANK0   BANK1   BANK2   BANK3   BANK4   BANK5   BANK6   BANK7   BANK8   BANK9  BANK10  BANK1
      +1  BANK12  BANK13  BANK14
  3575 ;;      Params:         2       0       0       0       0       0       0       0       0       0       0       0       
      +0       0       0       0
  3576 ;;      Locals:         0       0       0       0       0       0       0       0       0       0       0       0       
      +0       0       0       0
  3577 ;;      Temps:          0       0       0       0       0       0       0       0       0       0       0       0       
      +0       0       0       0
  3578 ;;      Totals:         2       0       0       0       0       0       0       0       0       0       0       0       
      +0       0       0       0
  3579 ;;Total ram usage:        2 bytes
  3580 ;; Hardware stack levels used:    1
  3581 ;; This function calls:
  3582 ;;		Nothing
  3583 ;; This function is called by:
  3584 ;;		_i2c_open
  3585 ;;		_do_I2C_DO_ADDRESS_NACK
  3586 ;;		_do_I2C_TX
  3587 ;;		_do_I2C_RX
  3588 ;;		_do_I2C_TX_EMPTY
  3589 ;; This function uses a non-reentrant model
  3590 ;;
  3591                           
  3592                           	psect	text45
  3593  0015F0                     __ptext45:
  3594                           	opt callstack 0
  3595  0015F0                     _returnReset:
  3596                           	opt callstack 24
  3597                           
  3598                           ;i2c_master.c: 450: return i2c_reset_link;
  3599                           
  3600                           ;incstack = 0
  3601  0015F0  0E05               	movlw	5
  3602  0015F2  0012               	return		;funcret
  3603  0015F4                     __end_of_returnReset:
  3604                           	opt callstack 0
  3605                           
  3606 ;; *************** function _returnStop *****************
  3607 ;; Defined at:
  3608 ;;		line 443 in file "mcc_generated_files/drivers/i2c_master.c"
  3609 ;; Parameters:    Size  Location     Type
  3610 ;;  p               2    0[COMRAM] PTR void 
  3611 ;;		 -> NULL(0), 
  3612 ;; Auto vars:     Size  Location     Type
  3613 ;;		None
  3614 ;; Return value:  Size  Location     Type
  3615 ;;                  1    wreg      enum E10091
  3616 ;; Registers used:
  3617 ;;		wreg
  3618 ;; Tracked objects:
  3619 ;;		On entry : 0/0
  3620 ;;		On exit  : 0/0
  3621 ;;		Unchanged: 0/0
  3622 ;; Data sizes:     COMRAM   BANK0   BANK1   BANK2   BANK3   BANK4   BANK5   BANK6   BANK7   BANK8   BANK9  BANK10  BANK1
      +1  BANK12  BANK13  BANK14
  3623 ;;      Params:         2       0       0       0       0       0       0       0       0       0       0       0       
      +0       0       0       0
  3624 ;;      Locals:         0       0       0       0       0       0       0       0       0       0       0       0       
      +0       0       0       0
  3625 ;;      Temps:          0       0       0       0       0       0       0       0       0       0       0       0       
      +0       0       0       0
  3626 ;;      Totals:         2       0       0       0       0       0       0       0       0       0       0       0       
      +0       0       0       0
  3627 ;;Total ram usage:        2 bytes
  3628 ;; Hardware stack levels used:    1
  3629 ;; This function calls:
  3630 ;;		Nothing
  3631 ;; This function is called by:
  3632 ;;		_i2c_open
  3633 ;;		_setCallBack
  3634 ;;		_do_I2C_DO_ADDRESS_NACK
  3635 ;;		_do_I2C_TX
  3636 ;;		_do_I2C_RX
  3637 ;;		_do_I2C_TX_EMPTY
  3638 ;; This function uses a non-reentrant model
  3639 ;;
  3640                           
  3641                           	psect	text46
  3642  0015F4                     __ptext46:
  3643                           	opt callstack 0
  3644  0015F4                     _returnStop:
  3645                           	opt callstack 24
  3646                           
  3647                           ;i2c_master.c: 445: return i2c_stop;
  3648                           
  3649                           ;incstack = 0
  3650  0015F4  0E01               	movlw	1
  3651  0015F6  0012               	return		;funcret
  3652  0015F8                     __end_of_returnStop:
  3653                           	opt callstack 0
  3654                           
  3655 ;; *************** function _i2c1_driver_stop *****************
  3656 ;; Defined at:
  3657 ;;		line 156 in file "mcc_generated_files/i2c1_driver.c"
  3658 ;; Parameters:    Size  Location     Type
  3659 ;;		None
  3660 ;; Auto vars:     Size  Location     Type
  3661 ;;		None
  3662 ;; Return value:  Size  Location     Type
  3663 ;;                  1    wreg      void 
  3664 ;; Registers used:
  3665 ;;		None
  3666 ;; Tracked objects:
  3667 ;;		On entry : 0/0
  3668 ;;		On exit  : 0/0
  3669 ;;		Unchanged: 0/0
  3670 ;; Data sizes:     COMRAM   BANK0   BANK1   BANK2   BANK3   BANK4   BANK5   BANK6   BANK7   BANK8   BANK9  BANK10  BANK1
      +1  BANK12  BANK13  BANK14
  3671 ;;      Params:         0       0       0       0       0       0       0       0       0       0       0       0       
      +0       0       0       0
  3672 ;;      Locals:         0       0       0       0       0       0       0       0       0       0       0       0       
      +0       0       0       0
  3673 ;;      Temps:          0       0       0       0       0       0       0       0       0       0       0       0       
      +0       0       0       0
  3674 ;;      Totals:         0       0       0       0       0       0       0       0       0       0       0       0       
      +0       0       0       0
  3675 ;;Total ram usage:        0 bytes
  3676 ;; Hardware stack levels used:    1
  3677 ;; This function calls:
  3678 ;;		Nothing
  3679 ;; This function is called by:
  3680 ;;		_do_I2C_SEND_STOP
  3681 ;; This function uses a non-reentrant model
  3682 ;;
  3683                           
  3684                           	psect	text47
  3685  0015F8                     __ptext47:
  3686                           	opt callstack 0
  3687  0015F8                     _i2c1_driver_stop:
  3688                           	opt callstack 23
  3689                           
  3690                           ;i2c1_driver.c: 158: SSP1CON2bits.PEN = 1;
  3691                           
  3692                           ;incstack = 0
  3693  0015F8  8497               	bsf	3991,2,c	;volatile
  3694  0015FA  0012               	return		;funcret
  3695  0015FC                     __end_of_i2c1_driver_stop:
  3696                           	opt callstack 0
  3697                           
  3698 ;; *************** function _i2c1_driver_restart *****************
  3699 ;; Defined at:
  3700 ;;		line 151 in file "mcc_generated_files/i2c1_driver.c"
  3701 ;; Parameters:    Size  Location     Type
  3702 ;;		None
  3703 ;; Auto vars:     Size  Location     Type
  3704 ;;		None
  3705 ;; Return value:  Size  Location     Type
  3706 ;;                  1    wreg      void 
  3707 ;; Registers used:
  3708 ;;		None
  3709 ;; Tracked objects:
  3710 ;;		On entry : 0/0
  3711 ;;		On exit  : 0/0
  3712 ;;		Unchanged: 0/0
  3713 ;; Data sizes:     COMRAM   BANK0   BANK1   BANK2   BANK3   BANK4   BANK5   BANK6   BANK7   BANK8   BANK9  BANK10  BANK1
      +1  BANK12  BANK13  BANK14
  3714 ;;      Params:         0       0       0       0       0       0       0       0       0       0       0       0       
      +0       0       0       0
  3715 ;;      Locals:         0       0       0       0       0       0       0       0       0       0       0       0       
      +0       0       0       0
  3716 ;;      Temps:          0       0       0       0       0       0       0       0       0       0       0       0       
      +0       0       0       0
  3717 ;;      Totals:         0       0       0       0       0       0       0       0       0       0       0       0       
      +0       0       0       0
  3718 ;;Total ram usage:        0 bytes
  3719 ;; Hardware stack levels used:    1
  3720 ;; This function calls:
  3721 ;;		Nothing
  3722 ;; This function is called by:
  3723 ;;		_do_I2C_SEND_RESTART_READ
  3724 ;;		_do_I2C_SEND_RESTART_WRITE
  3725 ;;		_do_I2C_SEND_RESTART
  3726 ;; This function uses a non-reentrant model
  3727 ;;
  3728                           
  3729                           	psect	text48
  3730  0015FC                     __ptext48:
  3731                           	opt callstack 0
  3732  0015FC                     _i2c1_driver_restart:
  3733                           	opt callstack 23
  3734                           
  3735                           ;i2c1_driver.c: 153: SSP1CON2bits.RSEN = 1;
  3736                           
  3737                           ;incstack = 0
  3738  0015FC  8297               	bsf	3991,1,c	;volatile
  3739  0015FE  0012               	return		;funcret
  3740  001600                     __end_of_i2c1_driver_restart:
  3741                           	opt callstack 0
  3742                           
  3743 ;; *************** function _i2c1_driver_sendACK *****************
  3744 ;; Defined at:
  3745 ;;		line 196 in file "mcc_generated_files/i2c1_driver.c"
  3746 ;; Parameters:    Size  Location     Type
  3747 ;;		None
  3748 ;; Auto vars:     Size  Location     Type
  3749 ;;		None
  3750 ;; Return value:  Size  Location     Type
  3751 ;;                  1    wreg      void 
  3752 ;; Registers used:
  3753 ;;		None
  3754 ;; Tracked objects:
  3755 ;;		On entry : 0/0
  3756 ;;		On exit  : 0/0
  3757 ;;		Unchanged: 0/0
  3758 ;; Data sizes:     COMRAM   BANK0   BANK1   BANK2   BANK3   BANK4   BANK5   BANK6   BANK7   BANK8   BANK9  BANK10  BANK1
      +1  BANK12  BANK13  BANK14
  3759 ;;      Params:         0       0       0       0       0       0       0       0       0       0       0       0       
      +0       0       0       0
  3760 ;;      Locals:         0       0       0       0       0       0       0       0       0       0       0       0       
      +0       0       0       0
  3761 ;;      Temps:          0       0       0       0       0       0       0       0       0       0       0       0       
      +0       0       0       0
  3762 ;;      Totals:         0       0       0       0       0       0       0       0       0       0       0       0       
      +0       0       0       0
  3763 ;;Total ram usage:        0 bytes
  3764 ;; Hardware stack levels used:    1
  3765 ;; This function calls:
  3766 ;;		Nothing
  3767 ;; This function is called by:
  3768 ;;		_do_I2C_DO_ACK
  3769 ;;		_do_I2C_RX
  3770 ;; This function uses a non-reentrant model
  3771 ;;
  3772                           
  3773                           	psect	text49
  3774  0015DE                     __ptext49:
  3775                           	opt callstack 0
  3776  0015DE                     _i2c1_driver_sendACK:
  3777                           	opt callstack 24
  3778                           
  3779                           ;i2c1_driver.c: 198: SSP1CON2bits.ACKDT = 0;
  3780                           
  3781                           ;incstack = 0
  3782  0015DE  9A97               	bcf	3991,5,c	;volatile
  3783                           
  3784                           ;i2c1_driver.c: 199: SSP1CON2bits.ACKEN = 1;
  3785  0015E0  8897               	bsf	3991,4,c	;volatile
  3786  0015E2  0012               	return		;funcret
  3787  0015E4                     __end_of_i2c1_driver_sendACK:
  3788                           	opt callstack 0
  3789                           
  3790 ;; *************** function _TMR2_ISR *****************
  3791 ;; Defined at:
  3792 ;;		line 165 in file "mcc_generated_files/tmr2.c"
  3793 ;; Parameters:    Size  Location     Type
  3794 ;;		None
  3795 ;; Auto vars:     Size  Location     Type
  3796 ;;		None
  3797 ;; Return value:  Size  Location     Type
  3798 ;;                  1    wreg      void 
  3799 ;; Registers used:
  3800 ;;		wreg, status,2, status,0, pclath, tosl, cstack
  3801 ;; Tracked objects:
  3802 ;;		On entry : 0/0
  3803 ;;		On exit  : 0/0
  3804 ;;		Unchanged: 0/0
  3805 ;; Data sizes:     COMRAM   BANK0   BANK1   BANK2   BANK3   BANK4   BANK5   BANK6   BANK7   BANK8   BANK9  BANK10  BANK1
      +1  BANK12  BANK13  BANK14
  3806 ;;      Params:         0       0       0       0       0       0       0       0       0       0       0       0       
      +0       0       0       0
  3807 ;;      Locals:         0       0       0       0       0       0       0       0       0       0       0       0       
      +0       0       0       0
  3808 ;;      Temps:          0       0       0       0       0       0       0       0       0       0       0       0       
      +0       0       0       0
  3809 ;;      Totals:         0       0       0       0       0       0       0       0       0       0       0       0       
      +0       0       0       0
  3810 ;;Total ram usage:        0 bytes
  3811 ;; Hardware stack levels used:    1
  3812 ;; Hardware stack levels required when called:    2
  3813 ;; This function calls:
  3814 ;;		_TMR2_CallBack
  3815 ;; This function is called by:
  3816 ;;		_INTERRUPT_InterruptManager
  3817 ;; This function uses a non-reentrant model
  3818 ;;
  3819                           
  3820                           	psect	text50
  3821  00156C                     __ptext50:
  3822                           	opt callstack 0
  3823  00156C                     _TMR2_ISR:
  3824                           	opt callstack 24
  3825                           
  3826                           ;tmr2.c: 169: PIR4bits.TMR2IF = 0;
  3827                           
  3828                           ;incstack = 0
  3829  00156C  010E               	movlb	14	; () banked
  3830  00156E  93CE               	bcf	206,1,b	;volatile
  3831                           
  3832                           ; BSR set to: 14
  3833                           ;tmr2.c: 173: TMR2_CallBack();
  3834  001570  EC15  F00A         	call	_TMR2_CallBack	;wreg free
  3835  001574  0012               	return		;funcret
  3836  001576                     __end_of_TMR2_ISR:
  3837                           	opt callstack 0
  3838                           
  3839 ;; *************** function _TMR2_CallBack *****************
  3840 ;; Defined at:
  3841 ;;		line 176 in file "mcc_generated_files/tmr2.c"
  3842 ;; Parameters:    Size  Location     Type
  3843 ;;		None
  3844 ;; Auto vars:     Size  Location     Type
  3845 ;;		None
  3846 ;; Return value:  Size  Location     Type
  3847 ;;                  1    wreg      void 
  3848 ;; Registers used:
  3849 ;;		wreg, status,2, status,0, pclath, tosl, cstack
  3850 ;; Tracked objects:
  3851 ;;		On entry : 0/0
  3852 ;;		On exit  : 0/0
  3853 ;;		Unchanged: 0/0
  3854 ;; Data sizes:     COMRAM   BANK0   BANK1   BANK2   BANK3   BANK4   BANK5   BANK6   BANK7   BANK8   BANK9  BANK10  BANK1
      +1  BANK12  BANK13  BANK14
  3855 ;;      Params:         0       0       0       0       0       0       0       0       0       0       0       0       
      +0       0       0       0
  3856 ;;      Locals:         0       0       0       0       0       0       0       0       0       0       0       0       
      +0       0       0       0
  3857 ;;      Temps:          0       0       0       0       0       0       0       0       0       0       0       0       
      +0       0       0       0
  3858 ;;      Totals:         0       0       0       0       0       0       0       0       0       0       0       0       
      +0       0       0       0
  3859 ;;Total ram usage:        0 bytes
  3860 ;; Hardware stack levels used:    1
  3861 ;; Hardware stack levels required when called:    1
  3862 ;; This function calls:
  3863 ;;		Absolute function
  3864 ;;		_TMR2_DefaultInterruptHandler
  3865 ;; This function is called by:
  3866 ;;		_TMR2_ISR
  3867 ;; This function uses a non-reentrant model
  3868 ;;
  3869                           
  3870                           	psect	text51
  3871  00142A                     __ptext51:
  3872                           	opt callstack 0
  3873  00142A                     _TMR2_CallBack:
  3874                           	opt callstack 24
  3875                           
  3876                           ;tmr2.c: 180: if(TMR2_InterruptHandler)
  3877                           
  3878                           ;incstack = 0
  3879  00142A  504B               	movf	_TMR2_InterruptHandler,w,c
  3880  00142C  104C               	iorwf	_TMR2_InterruptHandler+1,w,c
  3881  00142E  B4D8               	btfsc	status,2,c
  3882  001430  0012               	return	
  3883                           
  3884                           ;tmr2.c: 181: {;tmr2.c: 182: TMR2_InterruptHandler();
  3885  001432  D801               	call	i2u10_48
  3886  001434  0012               	return	
  3887  001436                     i2u10_48:
  3888  001436  0005               	push	
  3889  001438  6EFA               	movwf	pclath,c
  3890  00143A  504B               	movf	_TMR2_InterruptHandler,w,c
  3891  00143C  6EFD               	movwf	tosl,c
  3892  00143E  504C               	movf	_TMR2_InterruptHandler+1,w,c
  3893  001440  6EFE               	movwf	tosh,c
  3894  001442  6AFF               	clrf	tosu,c
  3895  001444  50FA               	movf	pclath,w,c
  3896  001446  0012               	return		;indir
  3897  001448                     __end_of_TMR2_CallBack:
  3898                           	opt callstack 0
  3899                           
  3900 ;; *************** function _TMR2_DefaultInterruptHandler *****************
  3901 ;; Defined at:
  3902 ;;		line 190 in file "mcc_generated_files/tmr2.c"
  3903 ;; Parameters:    Size  Location     Type
  3904 ;;		None
  3905 ;; Auto vars:     Size  Location     Type
  3906 ;;		None
  3907 ;; Return value:  Size  Location     Type
  3908 ;;                  1    wreg      void 
  3909 ;; Registers used:
  3910 ;;		None
  3911 ;; Tracked objects:
  3912 ;;		On entry : 0/0
  3913 ;;		On exit  : 0/0
  3914 ;;		Unchanged: 0/0
  3915 ;; Data sizes:     COMRAM   BANK0   BANK1   BANK2   BANK3   BANK4   BANK5   BANK6   BANK7   BANK8   BANK9  BANK10  BANK1
      +1  BANK12  BANK13  BANK14
  3916 ;;      Params:         0       0       0       0       0       0       0       0       0       0       0       0       
      +0       0       0       0
  3917 ;;      Locals:         0       0       0       0       0       0       0       0       0       0       0       0       
      +0       0       0       0
  3918 ;;      Temps:          0       0       0       0       0       0       0       0       0       0       0       0       
      +0       0       0       0
  3919 ;;      Totals:         0       0       0       0       0       0       0       0       0       0       0       0       
      +0       0       0       0
  3920 ;;Total ram usage:        0 bytes
  3921 ;; Hardware stack levels used:    1
  3922 ;; This function calls:
  3923 ;;		Nothing
  3924 ;; This function is called by:
  3925 ;;		_TMR2_Initialize
  3926 ;;		_TMR2_CallBack
  3927 ;; This function uses a non-reentrant model
  3928 ;;
  3929                           
  3930                           	psect	text52
  3931  001602                     __ptext52:
  3932                           	opt callstack 0
  3933  001602                     _TMR2_DefaultInterruptHandler:
  3934                           	opt callstack 24
  3935                           
  3936                           ;incstack = 0
  3937  001602  0012               	return		;funcret
  3938  001604                     __end_of_TMR2_DefaultInterruptHandler:
  3939                           	opt callstack 0
  3940                           
  3941 ;; *************** function _PIN_MANAGER_IOC *****************
  3942 ;; Defined at:
  3943 ;;		line 168 in file "mcc_generated_files/pin_manager.c"
  3944 ;; Parameters:    Size  Location     Type
  3945 ;;		None
  3946 ;; Auto vars:     Size  Location     Type
  3947 ;;		None
  3948 ;; Return value:  Size  Location     Type
  3949 ;;                  1    wreg      void 
  3950 ;; Registers used:
  3951 ;;		wreg, status,2, status,0, pclath, tosl, cstack
  3952 ;; Tracked objects:
  3953 ;;		On entry : 0/0
  3954 ;;		On exit  : 0/0
  3955 ;;		Unchanged: 0/0
  3956 ;; Data sizes:     COMRAM   BANK0   BANK1   BANK2   BANK3   BANK4   BANK5   BANK6   BANK7   BANK8   BANK9  BANK10  BANK1
      +1  BANK12  BANK13  BANK14
  3957 ;;      Params:         0       0       0       0       0       0       0       0       0       0       0       0       
      +0       0       0       0
  3958 ;;      Locals:         0       0       0       0       0       0       0       0       0       0       0       0       
      +0       0       0       0
  3959 ;;      Temps:          0       0       0       0       0       0       0       0       0       0       0       0       
      +0       0       0       0
  3960 ;;      Totals:         0       0       0       0       0       0       0       0       0       0       0       0       
      +0       0       0       0
  3961 ;;Total ram usage:        0 bytes
  3962 ;; Hardware stack levels used:    1
  3963 ;; Hardware stack levels required when called:    2
  3964 ;; This function calls:
  3965 ;;		_IOCAF1_ISR
  3966 ;;		_IOCAF2_ISR
  3967 ;;		_IOCAF3_ISR
  3968 ;;		_IOCAF4_ISR
  3969 ;; This function is called by:
  3970 ;;		_INTERRUPT_InterruptManager
  3971 ;; This function uses a non-reentrant model
  3972 ;;
  3973                           
  3974                           	psect	text53
  3975  001376                     __ptext53:
  3976                           	opt callstack 0
  3977  001376                     _PIN_MANAGER_IOC:
  3978                           	opt callstack 24
  3979                           
  3980                           ;pin_manager.c: 171: if(IOCAFbits.IOCAF1 == 1)
  3981                           
  3982                           ;incstack = 0
  3983  001376  010F               	movlb	15	; () banked
  3984  001378  B30A               	btfsc	10,1,b	;volatile
  3985                           
  3986                           ; BSR set to: 15
  3987                           ;pin_manager.c: 172: {;pin_manager.c: 173: IOCAF1_ISR();
  3988  00137A  EC03  F00A         	call	_IOCAF1_ISR	;wreg free
  3989                           
  3990                           ;pin_manager.c: 174: };pin_manager.c: 176: if(IOCAFbits.IOCAF2 == 1)
  3991  00137E  010F               	movlb	15	; () banked
  3992  001380  B50A               	btfsc	10,2,b	;volatile
  3993                           
  3994                           ; BSR set to: 15
  3995                           ;pin_manager.c: 177: {;pin_manager.c: 178: IOCAF2_ISR();
  3996  001382  ECF1  F009         	call	_IOCAF2_ISR	;wreg free
  3997                           
  3998                           ;pin_manager.c: 179: };pin_manager.c: 181: if(IOCAFbits.IOCAF3 == 1)
  3999  001386  010F               	movlb	15	; () banked
  4000  001388  B70A               	btfsc	10,3,b	;volatile
  4001                           
  4002                           ; BSR set to: 15
  4003                           ;pin_manager.c: 182: {;pin_manager.c: 183: IOCAF3_ISR();
  4004  00138A  ECDF  F009         	call	_IOCAF3_ISR	;wreg free
  4005                           
  4006                           ;pin_manager.c: 184: };pin_manager.c: 186: if(IOCAFbits.IOCAF4 == 1)
  4007  00138E  010F               	movlb	15	; () banked
  4008  001390  A90A               	btfss	10,4,b	;volatile
  4009  001392  0012               	return	
  4010                           
  4011                           ; BSR set to: 15
  4012                           ;pin_manager.c: 187: {;pin_manager.c: 188: IOCAF4_ISR();
  4013  001394  ECCD  F009         	call	_IOCAF4_ISR	;wreg free
  4014  001398  0012               	return		;funcret
  4015  00139A                     __end_of_PIN_MANAGER_IOC:
  4016                           	opt callstack 0
  4017                           
  4018 ;; *************** function _IOCAF4_ISR *****************
  4019 ;; Defined at:
  4020 ;;		line 285 in file "mcc_generated_files/pin_manager.c"
  4021 ;; Parameters:    Size  Location     Type
  4022 ;;		None
  4023 ;; Auto vars:     Size  Location     Type
  4024 ;;		None
  4025 ;; Return value:  Size  Location     Type
  4026 ;;                  1    wreg      void 
  4027 ;; Registers used:
  4028 ;;		wreg, status,2, status,0, pclath, tosl, cstack
  4029 ;; Tracked objects:
  4030 ;;		On entry : 0/0
  4031 ;;		On exit  : 0/0
  4032 ;;		Unchanged: 0/0
  4033 ;; Data sizes:     COMRAM   BANK0   BANK1   BANK2   BANK3   BANK4   BANK5   BANK6   BANK7   BANK8   BANK9  BANK10  BANK1
      +1  BANK12  BANK13  BANK14
  4034 ;;      Params:         0       0       0       0       0       0       0       0       0       0       0       0       
      +0       0       0       0
  4035 ;;      Locals:         0       0       0       0       0       0       0       0       0       0       0       0       
      +0       0       0       0
  4036 ;;      Temps:          0       0       0       0       0       0       0       0       0       0       0       0       
      +0       0       0       0
  4037 ;;      Totals:         0       0       0       0       0       0       0       0       0       0       0       0       
      +0       0       0       0
  4038 ;;Total ram usage:        0 bytes
  4039 ;; Hardware stack levels used:    1
  4040 ;; Hardware stack levels required when called:    1
  4041 ;; This function calls:
  4042 ;;		Absolute function
  4043 ;;		_IOCAF4_DefaultInterruptHandler
  4044 ;; This function is called by:
  4045 ;;		_PIN_MANAGER_IOC
  4046 ;; This function uses a non-reentrant model
  4047 ;;
  4048                           
  4049                           	psect	text54
  4050  00139A                     __ptext54:
  4051                           	opt callstack 0
  4052  00139A                     _IOCAF4_ISR:
  4053                           	opt callstack 24
  4054                           
  4055                           ;pin_manager.c: 290: if(IOCAF4_InterruptHandler)
  4056                           
  4057                           ;incstack = 0
  4058  00139A  5041               	movf	_IOCAF4_InterruptHandler,w,c
  4059  00139C  1042               	iorwf	_IOCAF4_InterruptHandler+1,w,c
  4060  00139E  B4D8               	btfsc	status,2,c
  4061  0013A0  D00B               	goto	i2u20_49
  4062                           
  4063                           ;pin_manager.c: 291: {;pin_manager.c: 292: IOCAF4_InterruptHandler();
  4064  0013A2  D801               	call	i2u20_48
  4065  0013A4  D009               	goto	i2u20_49
  4066  0013A6                     i2u20_48:
  4067  0013A6  0005               	push	
  4068  0013A8  6EFA               	movwf	pclath,c
  4069  0013AA  5041               	movf	_IOCAF4_InterruptHandler,w,c
  4070  0013AC  6EFD               	movwf	tosl,c
  4071  0013AE  5042               	movf	_IOCAF4_InterruptHandler+1,w,c
  4072  0013B0  6EFE               	movwf	tosh,c
  4073  0013B2  6AFF               	clrf	tosu,c
  4074  0013B4  50FA               	movf	pclath,w,c
  4075  0013B6  0012               	return		;indir
  4076  0013B8                     i2u20_49:
  4077                           
  4078                           ;pin_manager.c: 293: };pin_manager.c: 294: IOCAFbits.IOCAF4 = 0;
  4079  0013B8  010F               	movlb	15	; () banked
  4080  0013BA  990A               	bcf	10,4,b	;volatile
  4081                           
  4082                           ; BSR set to: 15
  4083  0013BC  0012               	return		;funcret
  4084  0013BE                     __end_of_IOCAF4_ISR:
  4085                           	opt callstack 0
  4086                           
  4087 ;; *************** function _IOCAF4_DefaultInterruptHandler *****************
  4088 ;; Defined at:
  4089 ;;		line 307 in file "mcc_generated_files/pin_manager.c"
  4090 ;; Parameters:    Size  Location     Type
  4091 ;;		None
  4092 ;; Auto vars:     Size  Location     Type
  4093 ;;		None
  4094 ;; Return value:  Size  Location     Type
  4095 ;;                  1    wreg      void 
  4096 ;; Registers used:
  4097 ;;		None
  4098 ;; Tracked objects:
  4099 ;;		On entry : 0/0
  4100 ;;		On exit  : 0/0
  4101 ;;		Unchanged: 0/0
  4102 ;; Data sizes:     COMRAM   BANK0   BANK1   BANK2   BANK3   BANK4   BANK5   BANK6   BANK7   BANK8   BANK9  BANK10  BANK1
      +1  BANK12  BANK13  BANK14
  4103 ;;      Params:         0       0       0       0       0       0       0       0       0       0       0       0       
      +0       0       0       0
  4104 ;;      Locals:         0       0       0       0       0       0       0       0       0       0       0       0       
      +0       0       0       0
  4105 ;;      Temps:          0       0       0       0       0       0       0       0       0       0       0       0       
      +0       0       0       0
  4106 ;;      Totals:         0       0       0       0       0       0       0       0       0       0       0       0       
      +0       0       0       0
  4107 ;;Total ram usage:        0 bytes
  4108 ;; Hardware stack levels used:    1
  4109 ;; This function calls:
  4110 ;;		Nothing
  4111 ;; This function is called by:
  4112 ;;		_PIN_MANAGER_Initialize
  4113 ;;		_IOCAF4_ISR
  4114 ;; This function uses a non-reentrant model
  4115 ;;
  4116                           
  4117                           	psect	text55
  4118  001604                     __ptext55:
  4119                           	opt callstack 0
  4120  001604                     _IOCAF4_DefaultInterruptHandler:
  4121                           	opt callstack 24
  4122                           
  4123                           ; BSR set to: 15
  4124                           ;incstack = 0
  4125  001604  0012               	return		;funcret
  4126  001606                     __end_of_IOCAF4_DefaultInterruptHandler:
  4127                           	opt callstack 0
  4128                           
  4129 ;; *************** function _IOCAF3_ISR *****************
  4130 ;; Defined at:
  4131 ;;		line 255 in file "mcc_generated_files/pin_manager.c"
  4132 ;; Parameters:    Size  Location     Type
  4133 ;;		None
  4134 ;; Auto vars:     Size  Location     Type
  4135 ;;		None
  4136 ;; Return value:  Size  Location     Type
  4137 ;;                  1    wreg      void 
  4138 ;; Registers used:
  4139 ;;		wreg, status,2, status,0, pclath, tosl, cstack
  4140 ;; Tracked objects:
  4141 ;;		On entry : 0/0
  4142 ;;		On exit  : 0/0
  4143 ;;		Unchanged: 0/0
  4144 ;; Data sizes:     COMRAM   BANK0   BANK1   BANK2   BANK3   BANK4   BANK5   BANK6   BANK7   BANK8   BANK9  BANK10  BANK1
      +1  BANK12  BANK13  BANK14
  4145 ;;      Params:         0       0       0       0       0       0       0       0       0       0       0       0       
      +0       0       0       0
  4146 ;;      Locals:         0       0       0       0       0       0       0       0       0       0       0       0       
      +0       0       0       0
  4147 ;;      Temps:          0       0       0       0       0       0       0       0       0       0       0       0       
      +0       0       0       0
  4148 ;;      Totals:         0       0       0       0       0       0       0       0       0       0       0       0       
      +0       0       0       0
  4149 ;;Total ram usage:        0 bytes
  4150 ;; Hardware stack levels used:    1
  4151 ;; Hardware stack levels required when called:    1
  4152 ;; This function calls:
  4153 ;;		Absolute function
  4154 ;;		_IOCAF3_DefaultInterruptHandler
  4155 ;; This function is called by:
  4156 ;;		_PIN_MANAGER_IOC
  4157 ;; This function uses a non-reentrant model
  4158 ;;
  4159                           
  4160                           	psect	text56
  4161  0013BE                     __ptext56:
  4162                           	opt callstack 0
  4163  0013BE                     _IOCAF3_ISR:
  4164                           	opt callstack 24
  4165                           
  4166                           ;pin_manager.c: 260: if(IOCAF3_InterruptHandler)
  4167                           
  4168                           ;incstack = 0
  4169  0013BE  5043               	movf	_IOCAF3_InterruptHandler,w,c
  4170  0013C0  1044               	iorwf	_IOCAF3_InterruptHandler+1,w,c
  4171  0013C2  B4D8               	btfsc	status,2,c
  4172  0013C4  D00B               	goto	i2u18_49
  4173                           
  4174                           ;pin_manager.c: 261: {;pin_manager.c: 262: IOCAF3_InterruptHandler();
  4175  0013C6  D801               	call	i2u18_48
  4176  0013C8  D009               	goto	i2u18_49
  4177  0013CA                     i2u18_48:
  4178  0013CA  0005               	push	
  4179  0013CC  6EFA               	movwf	pclath,c
  4180  0013CE  5043               	movf	_IOCAF3_InterruptHandler,w,c
  4181  0013D0  6EFD               	movwf	tosl,c
  4182  0013D2  5044               	movf	_IOCAF3_InterruptHandler+1,w,c
  4183  0013D4  6EFE               	movwf	tosh,c
  4184  0013D6  6AFF               	clrf	tosu,c
  4185  0013D8  50FA               	movf	pclath,w,c
  4186  0013DA  0012               	return		;indir
  4187  0013DC                     i2u18_49:
  4188                           
  4189                           ;pin_manager.c: 263: };pin_manager.c: 264: IOCAFbits.IOCAF3 = 0;
  4190  0013DC  010F               	movlb	15	; () banked
  4191  0013DE  970A               	bcf	10,3,b	;volatile
  4192                           
  4193                           ; BSR set to: 15
  4194  0013E0  0012               	return		;funcret
  4195  0013E2                     __end_of_IOCAF3_ISR:
  4196                           	opt callstack 0
  4197                           
  4198 ;; *************** function _IOCAF3_DefaultInterruptHandler *****************
  4199 ;; Defined at:
  4200 ;;		line 277 in file "mcc_generated_files/pin_manager.c"
  4201 ;; Parameters:    Size  Location     Type
  4202 ;;		None
  4203 ;; Auto vars:     Size  Location     Type
  4204 ;;		None
  4205 ;; Return value:  Size  Location     Type
  4206 ;;                  1    wreg      void 
  4207 ;; Registers used:
  4208 ;;		None
  4209 ;; Tracked objects:
  4210 ;;		On entry : 0/0
  4211 ;;		On exit  : 0/0
  4212 ;;		Unchanged: 0/0
  4213 ;; Data sizes:     COMRAM   BANK0   BANK1   BANK2   BANK3   BANK4   BANK5   BANK6   BANK7   BANK8   BANK9  BANK10  BANK1
      +1  BANK12  BANK13  BANK14
  4214 ;;      Params:         0       0       0       0       0       0       0       0       0       0       0       0       
      +0       0       0       0
  4215 ;;      Locals:         0       0       0       0       0       0       0       0       0       0       0       0       
      +0       0       0       0
  4216 ;;      Temps:          0       0       0       0       0       0       0       0       0       0       0       0       
      +0       0       0       0
  4217 ;;      Totals:         0       0       0       0       0       0       0       0       0       0       0       0       
      +0       0       0       0
  4218 ;;Total ram usage:        0 bytes
  4219 ;; Hardware stack levels used:    1
  4220 ;; This function calls:
  4221 ;;		Nothing
  4222 ;; This function is called by:
  4223 ;;		_PIN_MANAGER_Initialize
  4224 ;;		_IOCAF3_ISR
  4225 ;; This function uses a non-reentrant model
  4226 ;;
  4227                           
  4228                           	psect	text57
  4229  001606                     __ptext57:
  4230                           	opt callstack 0
  4231  001606                     _IOCAF3_DefaultInterruptHandler:
  4232                           	opt callstack 24
  4233                           
  4234                           ; BSR set to: 15
  4235                           ;incstack = 0
  4236  001606  0012               	return		;funcret
  4237  001608                     __end_of_IOCAF3_DefaultInterruptHandler:
  4238                           	opt callstack 0
  4239                           
  4240 ;; *************** function _IOCAF2_ISR *****************
  4241 ;; Defined at:
  4242 ;;		line 225 in file "mcc_generated_files/pin_manager.c"
  4243 ;; Parameters:    Size  Location     Type
  4244 ;;		None
  4245 ;; Auto vars:     Size  Location     Type
  4246 ;;		None
  4247 ;; Return value:  Size  Location     Type
  4248 ;;                  1    wreg      void 
  4249 ;; Registers used:
  4250 ;;		wreg, status,2, status,0, pclath, tosl, cstack
  4251 ;; Tracked objects:
  4252 ;;		On entry : 0/0
  4253 ;;		On exit  : 0/0
  4254 ;;		Unchanged: 0/0
  4255 ;; Data sizes:     COMRAM   BANK0   BANK1   BANK2   BANK3   BANK4   BANK5   BANK6   BANK7   BANK8   BANK9  BANK10  BANK1
      +1  BANK12  BANK13  BANK14
  4256 ;;      Params:         0       0       0       0       0       0       0       0       0       0       0       0       
      +0       0       0       0
  4257 ;;      Locals:         0       0       0       0       0       0       0       0       0       0       0       0       
      +0       0       0       0
  4258 ;;      Temps:          0       0       0       0       0       0       0       0       0       0       0       0       
      +0       0       0       0
  4259 ;;      Totals:         0       0       0       0       0       0       0       0       0       0       0       0       
      +0       0       0       0
  4260 ;;Total ram usage:        0 bytes
  4261 ;; Hardware stack levels used:    1
  4262 ;; Hardware stack levels required when called:    1
  4263 ;; This function calls:
  4264 ;;		Absolute function
  4265 ;;		_IOCAF2_DefaultInterruptHandler
  4266 ;; This function is called by:
  4267 ;;		_PIN_MANAGER_IOC
  4268 ;; This function uses a non-reentrant model
  4269 ;;
  4270                           
  4271                           	psect	text58
  4272  0013E2                     __ptext58:
  4273                           	opt callstack 0
  4274  0013E2                     _IOCAF2_ISR:
  4275                           	opt callstack 24
  4276                           
  4277                           ;pin_manager.c: 230: if(IOCAF2_InterruptHandler)
  4278                           
  4279                           ;incstack = 0
  4280  0013E2  5045               	movf	_IOCAF2_InterruptHandler,w,c
  4281  0013E4  1046               	iorwf	_IOCAF2_InterruptHandler+1,w,c
  4282  0013E6  B4D8               	btfsc	status,2,c
  4283  0013E8  D00B               	goto	i2u16_49
  4284                           
  4285                           ;pin_manager.c: 231: {;pin_manager.c: 232: IOCAF2_InterruptHandler();
  4286  0013EA  D801               	call	i2u16_48
  4287  0013EC  D009               	goto	i2u16_49
  4288  0013EE                     i2u16_48:
  4289  0013EE  0005               	push	
  4290  0013F0  6EFA               	movwf	pclath,c
  4291  0013F2  5045               	movf	_IOCAF2_InterruptHandler,w,c
  4292  0013F4  6EFD               	movwf	tosl,c
  4293  0013F6  5046               	movf	_IOCAF2_InterruptHandler+1,w,c
  4294  0013F8  6EFE               	movwf	tosh,c
  4295  0013FA  6AFF               	clrf	tosu,c
  4296  0013FC  50FA               	movf	pclath,w,c
  4297  0013FE  0012               	return		;indir
  4298  001400                     i2u16_49:
  4299                           
  4300                           ;pin_manager.c: 233: };pin_manager.c: 234: IOCAFbits.IOCAF2 = 0;
  4301  001400  010F               	movlb	15	; () banked
  4302  001402  950A               	bcf	10,2,b	;volatile
  4303                           
  4304                           ; BSR set to: 15
  4305  001404  0012               	return		;funcret
  4306  001406                     __end_of_IOCAF2_ISR:
  4307                           	opt callstack 0
  4308                           
  4309 ;; *************** function _IOCAF2_DefaultInterruptHandler *****************
  4310 ;; Defined at:
  4311 ;;		line 247 in file "mcc_generated_files/pin_manager.c"
  4312 ;; Parameters:    Size  Location     Type
  4313 ;;		None
  4314 ;; Auto vars:     Size  Location     Type
  4315 ;;		None
  4316 ;; Return value:  Size  Location     Type
  4317 ;;                  1    wreg      void 
  4318 ;; Registers used:
  4319 ;;		None
  4320 ;; Tracked objects:
  4321 ;;		On entry : 0/0
  4322 ;;		On exit  : 0/0
  4323 ;;		Unchanged: 0/0
  4324 ;; Data sizes:     COMRAM   BANK0   BANK1   BANK2   BANK3   BANK4   BANK5   BANK6   BANK7   BANK8   BANK9  BANK10  BANK1
      +1  BANK12  BANK13  BANK14
  4325 ;;      Params:         0       0       0       0       0       0       0       0       0       0       0       0       
      +0       0       0       0
  4326 ;;      Locals:         0       0       0       0       0       0       0       0       0       0       0       0       
      +0       0       0       0
  4327 ;;      Temps:          0       0       0       0       0       0       0       0       0       0       0       0       
      +0       0       0       0
  4328 ;;      Totals:         0       0       0       0       0       0       0       0       0       0       0       0       
      +0       0       0       0
  4329 ;;Total ram usage:        0 bytes
  4330 ;; Hardware stack levels used:    1
  4331 ;; This function calls:
  4332 ;;		Nothing
  4333 ;; This function is called by:
  4334 ;;		_PIN_MANAGER_Initialize
  4335 ;;		_IOCAF2_ISR
  4336 ;; This function uses a non-reentrant model
  4337 ;;
  4338                           
  4339                           	psect	text59
  4340  001608                     __ptext59:
  4341                           	opt callstack 0
  4342  001608                     _IOCAF2_DefaultInterruptHandler:
  4343                           	opt callstack 24
  4344                           
  4345                           ; BSR set to: 15
  4346                           ;incstack = 0
  4347  001608  0012               	return		;funcret
  4348  00160A                     __end_of_IOCAF2_DefaultInterruptHandler:
  4349                           	opt callstack 0
  4350                           
  4351 ;; *************** function _IOCAF1_ISR *****************
  4352 ;; Defined at:
  4353 ;;		line 195 in file "mcc_generated_files/pin_manager.c"
  4354 ;; Parameters:    Size  Location     Type
  4355 ;;		None
  4356 ;; Auto vars:     Size  Location     Type
  4357 ;;		None
  4358 ;; Return value:  Size  Location     Type
  4359 ;;                  1    wreg      void 
  4360 ;; Registers used:
  4361 ;;		wreg, status,2, status,0, pclath, tosl, cstack
  4362 ;; Tracked objects:
  4363 ;;		On entry : 0/0
  4364 ;;		On exit  : 0/0
  4365 ;;		Unchanged: 0/0
  4366 ;; Data sizes:     COMRAM   BANK0   BANK1   BANK2   BANK3   BANK4   BANK5   BANK6   BANK7   BANK8   BANK9  BANK10  BANK1
      +1  BANK12  BANK13  BANK14
  4367 ;;      Params:         0       0       0       0       0       0       0       0       0       0       0       0       
      +0       0       0       0
  4368 ;;      Locals:         0       0       0       0       0       0       0       0       0       0       0       0       
      +0       0       0       0
  4369 ;;      Temps:          0       0       0       0       0       0       0       0       0       0       0       0       
      +0       0       0       0
  4370 ;;      Totals:         0       0       0       0       0       0       0       0       0       0       0       0       
      +0       0       0       0
  4371 ;;Total ram usage:        0 bytes
  4372 ;; Hardware stack levels used:    1
  4373 ;; Hardware stack levels required when called:    1
  4374 ;; This function calls:
  4375 ;;		Absolute function
  4376 ;;		_IOCAF1_DefaultInterruptHandler
  4377 ;; This function is called by:
  4378 ;;		_PIN_MANAGER_IOC
  4379 ;; This function uses a non-reentrant model
  4380 ;;
  4381                           
  4382                           	psect	text60
  4383  001406                     __ptext60:
  4384                           	opt callstack 0
  4385  001406                     _IOCAF1_ISR:
  4386                           	opt callstack 24
  4387                           
  4388                           ;pin_manager.c: 200: if(IOCAF1_InterruptHandler)
  4389                           
  4390                           ;incstack = 0
  4391  001406  5047               	movf	_IOCAF1_InterruptHandler,w,c
  4392  001408  1048               	iorwf	_IOCAF1_InterruptHandler+1,w,c
  4393  00140A  B4D8               	btfsc	status,2,c
  4394  00140C  D00B               	goto	i2u14_49
  4395                           
  4396                           ;pin_manager.c: 201: {;pin_manager.c: 202: IOCAF1_InterruptHandler();
  4397  00140E  D801               	call	i2u14_48
  4398  001410  D009               	goto	i2u14_49
  4399  001412                     i2u14_48:
  4400  001412  0005               	push	
  4401  001414  6EFA               	movwf	pclath,c
  4402  001416  5047               	movf	_IOCAF1_InterruptHandler,w,c
  4403  001418  6EFD               	movwf	tosl,c
  4404  00141A  5048               	movf	_IOCAF1_InterruptHandler+1,w,c
  4405  00141C  6EFE               	movwf	tosh,c
  4406  00141E  6AFF               	clrf	tosu,c
  4407  001420  50FA               	movf	pclath,w,c
  4408  001422  0012               	return		;indir
  4409  001424                     i2u14_49:
  4410                           
  4411                           ;pin_manager.c: 203: };pin_manager.c: 204: IOCAFbits.IOCAF1 = 0;
  4412  001424  010F               	movlb	15	; () banked
  4413  001426  930A               	bcf	10,1,b	;volatile
  4414                           
  4415                           ; BSR set to: 15
  4416  001428  0012               	return		;funcret
  4417  00142A                     __end_of_IOCAF1_ISR:
  4418                           	opt callstack 0
  4419                           
  4420 ;; *************** function _IOCAF1_DefaultInterruptHandler *****************
  4421 ;; Defined at:
  4422 ;;		line 217 in file "mcc_generated_files/pin_manager.c"
  4423 ;; Parameters:    Size  Location     Type
  4424 ;;		None
  4425 ;; Auto vars:     Size  Location     Type
  4426 ;;		None
  4427 ;; Return value:  Size  Location     Type
  4428 ;;                  1    wreg      void 
  4429 ;; Registers used:
  4430 ;;		None
  4431 ;; Tracked objects:
  4432 ;;		On entry : 0/0
  4433 ;;		On exit  : 0/0
  4434 ;;		Unchanged: 0/0
  4435 ;; Data sizes:     COMRAM   BANK0   BANK1   BANK2   BANK3   BANK4   BANK5   BANK6   BANK7   BANK8   BANK9  BANK10  BANK1
      +1  BANK12  BANK13  BANK14
  4436 ;;      Params:         0       0       0       0       0       0       0       0       0       0       0       0       
      +0       0       0       0
  4437 ;;      Locals:         0       0       0       0       0       0       0       0       0       0       0       0       
      +0       0       0       0
  4438 ;;      Temps:          0       0       0       0       0       0       0       0       0       0       0       0       
      +0       0       0       0
  4439 ;;      Totals:         0       0       0       0       0       0       0       0       0       0       0       0       
      +0       0       0       0
  4440 ;;Total ram usage:        0 bytes
  4441 ;; Hardware stack levels used:    1
  4442 ;; This function calls:
  4443 ;;		Nothing
  4444 ;; This function is called by:
  4445 ;;		_PIN_MANAGER_Initialize
  4446 ;;		_IOCAF1_ISR
  4447 ;; This function uses a non-reentrant model
  4448 ;;
  4449                           
  4450                           	psect	text61
  4451  00160A                     __ptext61:
  4452                           	opt callstack 0
  4453  00160A                     _IOCAF1_DefaultInterruptHandler:
  4454                           	opt callstack 24
  4455                           
  4456                           ; BSR set to: 15
  4457                           ;incstack = 0
  4458  00160A  0012               	return		;funcret
  4459  00160C                     __end_of_IOCAF1_DefaultInterruptHandler:
  4460                           	opt callstack 0
  4461                           
  4462 ;; *************** function _INT0_ISR *****************
  4463 ;; Defined at:
  4464 ;;		line 32 in file "mcc_generated_files/ext_int.c"
  4465 ;; Parameters:    Size  Location     Type
  4466 ;;		None
  4467 ;; Auto vars:     Size  Location     Type
  4468 ;;		None
  4469 ;; Return value:  Size  Location     Type
  4470 ;;                  1    wreg      void 
  4471 ;; Registers used:
  4472 ;;		wreg, status,2, status,0, pclath, tosl, cstack
  4473 ;; Tracked objects:
  4474 ;;		On entry : 0/0
  4475 ;;		On exit  : 0/0
  4476 ;;		Unchanged: 0/0
  4477 ;; Data sizes:     COMRAM   BANK0   BANK1   BANK2   BANK3   BANK4   BANK5   BANK6   BANK7   BANK8   BANK9  BANK10  BANK1
      +1  BANK12  BANK13  BANK14
  4478 ;;      Params:         0       0       0       0       0       0       0       0       0       0       0       0       
      +0       0       0       0
  4479 ;;      Locals:         0       0       0       0       0       0       0       0       0       0       0       0       
      +0       0       0       0
  4480 ;;      Temps:          0       0       0       0       0       0       0       0       0       0       0       0       
      +0       0       0       0
  4481 ;;      Totals:         0       0       0       0       0       0       0       0       0       0       0       0       
      +0       0       0       0
  4482 ;;Total ram usage:        0 bytes
  4483 ;; Hardware stack levels used:    1
  4484 ;; Hardware stack levels required when called:    2
  4485 ;; This function calls:
  4486 ;;		_INT0_CallBack
  4487 ;; This function is called by:
  4488 ;;		_INTERRUPT_InterruptManager
  4489 ;; This function uses a non-reentrant model
  4490 ;;
  4491                           
  4492                           	psect	text62
  4493  001576                     __ptext62:
  4494                           	opt callstack 0
  4495  001576                     _INT0_ISR:
  4496                           	opt callstack 24
  4497                           
  4498                           ;ext_int.c: 34: (PIR0bits.INT0IF = 0);
  4499                           
  4500                           ;incstack = 0
  4501  001576  010E               	movlb	14	; () banked
  4502  001578  91CA               	bcf	202,0,b	;volatile
  4503                           
  4504                           ; BSR set to: 14
  4505                           ;ext_int.c: 37: INT0_CallBack();
  4506  00157A  EC24  F00A         	call	_INT0_CallBack	;wreg free
  4507  00157E  0012               	return		;funcret
  4508  001580                     __end_of_INT0_ISR:
  4509                           	opt callstack 0
  4510                           
  4511 ;; *************** function _INT0_CallBack *****************
  4512 ;; Defined at:
  4513 ;;		line 41 in file "mcc_generated_files/ext_int.c"
  4514 ;; Parameters:    Size  Location     Type
  4515 ;;		None
  4516 ;; Auto vars:     Size  Location     Type
  4517 ;;		None
  4518 ;; Return value:  Size  Location     Type
  4519 ;;                  1    wreg      void 
  4520 ;; Registers used:
  4521 ;;		wreg, status,2, status,0, pclath, tosl, cstack
  4522 ;; Tracked objects:
  4523 ;;		On entry : 0/0
  4524 ;;		On exit  : 0/0
  4525 ;;		Unchanged: 0/0
  4526 ;; Data sizes:     COMRAM   BANK0   BANK1   BANK2   BANK3   BANK4   BANK5   BANK6   BANK7   BANK8   BANK9  BANK10  BANK1
      +1  BANK12  BANK13  BANK14
  4527 ;;      Params:         0       0       0       0       0       0       0       0       0       0       0       0       
      +0       0       0       0
  4528 ;;      Locals:         0       0       0       0       0       0       0       0       0       0       0       0       
      +0       0       0       0
  4529 ;;      Temps:          0       0       0       0       0       0       0       0       0       0       0       0       
      +0       0       0       0
  4530 ;;      Totals:         0       0       0       0       0       0       0       0       0       0       0       0       
      +0       0       0       0
  4531 ;;Total ram usage:        0 bytes
  4532 ;; Hardware stack levels used:    1
  4533 ;; Hardware stack levels required when called:    1
  4534 ;; This function calls:
  4535 ;;		Absolute function
  4536 ;;		_INT0_DefaultInterruptHandler
  4537 ;; This function is called by:
  4538 ;;		_INT0_ISR
  4539 ;; This function uses a non-reentrant model
  4540 ;;
  4541                           
  4542                           	psect	text63
  4543  001448                     __ptext63:
  4544                           	opt callstack 0
  4545  001448                     _INT0_CallBack:
  4546                           	opt callstack 24
  4547                           
  4548                           ;ext_int.c: 44: if(INT0_InterruptHandler)
  4549                           
  4550                           ;incstack = 0
  4551  001448  5049               	movf	_INT0_InterruptHandler,w,c
  4552  00144A  104A               	iorwf	_INT0_InterruptHandler+1,w,c
  4553  00144C  B4D8               	btfsc	status,2,c
  4554  00144E  0012               	return	
  4555                           
  4556                           ;ext_int.c: 45: {;ext_int.c: 46: INT0_InterruptHandler();
  4557  001450  D801               	call	i2u12_48
  4558  001452  0012               	return	
  4559  001454                     i2u12_48:
  4560  001454  0005               	push	
  4561  001456  6EFA               	movwf	pclath,c
  4562  001458  5049               	movf	_INT0_InterruptHandler,w,c
  4563  00145A  6EFD               	movwf	tosl,c
  4564  00145C  504A               	movf	_INT0_InterruptHandler+1,w,c
  4565  00145E  6EFE               	movwf	tosh,c
  4566  001460  6AFF               	clrf	tosu,c
  4567  001462  50FA               	movf	pclath,w,c
  4568  001464  0012               	return		;indir
  4569  001466                     __end_of_INT0_CallBack:
  4570                           	opt callstack 0
  4571                           
  4572 ;; *************** function _INT0_DefaultInterruptHandler *****************
  4573 ;; Defined at:
  4574 ;;		line 54 in file "mcc_generated_files/ext_int.c"
  4575 ;; Parameters:    Size  Location     Type
  4576 ;;		None
  4577 ;; Auto vars:     Size  Location     Type
  4578 ;;		None
  4579 ;; Return value:  Size  Location     Type
  4580 ;;                  1    wreg      void 
  4581 ;; Registers used:
  4582 ;;		None
  4583 ;; Tracked objects:
  4584 ;;		On entry : 0/0
  4585 ;;		On exit  : 0/0
  4586 ;;		Unchanged: 0/0
  4587 ;; Data sizes:     COMRAM   BANK0   BANK1   BANK2   BANK3   BANK4   BANK5   BANK6   BANK7   BANK8   BANK9  BANK10  BANK1
      +1  BANK12  BANK13  BANK14
  4588 ;;      Params:         0       0       0       0       0       0       0       0       0       0       0       0       
      +0       0       0       0
  4589 ;;      Locals:         0       0       0       0       0       0       0       0       0       0       0       0       
      +0       0       0       0
  4590 ;;      Temps:          0       0       0       0       0       0       0       0       0       0       0       0       
      +0       0       0       0
  4591 ;;      Totals:         0       0       0       0       0       0       0       0       0       0       0       0       
      +0       0       0       0
  4592 ;;Total ram usage:        0 bytes
  4593 ;; Hardware stack levels used:    1
  4594 ;; This function calls:
  4595 ;;		Nothing
  4596 ;; This function is called by:
  4597 ;;		_EXT_INT_Initialize
  4598 ;;		_INT0_CallBack
  4599 ;; This function uses a non-reentrant model
  4600 ;;
  4601                           
  4602                           	psect	text64
  4603  00160C                     __ptext64:
  4604                           	opt callstack 0
  4605  00160C                     _INT0_DefaultInterruptHandler:
  4606                           	opt callstack 24
  4607                           
  4608                           ;incstack = 0
  4609  00160C  0012               	return		;funcret
  4610  00160E                     __end_of_INT0_DefaultInterruptHandler:
  4611                           	opt callstack 0
  4612                           
  4613                           	psect	text65
  4614  000000                     __ptext65:
  4615                           	opt callstack 0
  4616                           
  4617                           	psect	rparam
  4618  0000                     
  4619                           	psect	temp
  4620  00004D                     btemp:
  4621                           	opt callstack 0
  4622  00004D                     	ds	1
  4623  0000                     int$flags	set	btemp
  4624  0000                     wtemp8	set	btemp+1
  4625  0000                     ttemp5	set	btemp+1
  4626  0000                     ttemp6	set	btemp+4
  4627  0000                     ttemp7	set	btemp+8
  4628                           tosu	equ	0xFFF
  4629                           tosh	equ	0xFFE
  4630                           tosl	equ	0xFFD
  4631                           stkptr	equ	0xFFC
  4632                           pclatu	equ	0xFFB
  4633                           pclath	equ	0xFFA
  4634                           pcl	equ	0xFF9
  4635                           tblptru	equ	0xFF8
  4636                           tblptrh	equ	0xFF7
  4637                           tblptrl	equ	0xFF6
  4638                           tablat	equ	0xFF5
  4639                           prodh	equ	0xFF4
  4640                           prodl	equ	0xFF3
  4641                           indf0	equ	0xFEF
  4642                           postinc0	equ	0xFEE
  4643                           postdec0	equ	0xFED
  4644                           preinc0	equ	0xFEC
  4645                           plusw0	equ	0xFEB
  4646                           fsr0h	equ	0xFEA
  4647                           fsr0l	equ	0xFE9
  4648                           wreg	equ	0xFE8
  4649                           indf1	equ	0xFE7
  4650                           postinc1	equ	0xFE6
  4651                           postdec1	equ	0xFE5
  4652                           preinc1	equ	0xFE4
  4653                           plusw1	equ	0xFE3
  4654                           fsr1h	equ	0xFE2
  4655                           fsr1l	equ	0xFE1
  4656                           bsr	equ	0xFE0
  4657                           indf2	equ	0xFDF
  4658                           postinc2	equ	0xFDE
  4659                           postdec2	equ	0xFDD
  4660                           preinc2	equ	0xFDC
  4661                           plusw2	equ	0xFDB
  4662                           fsr2h	equ	0xFDA
  4663                           fsr2l	equ	0xFD9
  4664                           status	equ	0xFD8


Data Sizes:
    Strings     0
    Constant    64
    Data        0
    BSS         44
    Persistent  12
    Stack       0

Auto Spaces:
    Space          Size  Autos    Used
    COMRAM           94     20      76
    BANK0           160      8       8
    BANK1           256      0       0
    BANK2           256      0       0
    BANK3           256      0       0
    BANK4           256      0       0
    BANK5           256      0       0
    BANK6           256      0       0
    BANK7           256      0       0
    BANK8           256      0       0
    BANK9           256      0       0
    BANK10          256      0       0
    BANK11          256      0       0
    BANK12          256      0       0
    BANK13          256      0       0
    BANK14          136      0       0

Pointer List with Targets:

    i2c_ISR$3042	const PTR FTN()enum E10258 size(2) Largest target is 1
		 -> do_I2C_TX_EMPTY(), do_I2C_RX(), do_I2C_TX(), do_I2C_DO_ADDRESS_NACK(), 
		 -> do_I2C_DO_NACK_RESTART(), do_I2C_DO_NACK_STOP(), do_I2C_DO_ACK(), do_I2C_RCEN(), 
		 -> do_I2C_SEND_ADR_WRITE(), do_I2C_SEND_ADR_READ(), do_I2C_SEND_STOP(), do_I2C_SEND_RESTART(), 
		 -> do_I2C_SEND_RESTART_WRITE(), do_I2C_SEND_RESTART_READ(), do_I2C_IDLE(), do_I2C_RESET(), 

    returnStop@p	PTR void  size(2) Largest target is 0
		 -> NULL(NULL[0]), 

    returnReset@p	PTR void  size(2) Largest target is 0
		 -> NULL(NULL[0]), 

    S2105$3$0	PTR void  size(2) Largest target is 0

    S2105$4$0	PTR void  size(2) Largest target is 0

    S2105$5$0	PTR void  size(2) Largest target is 0

    S2105$8$0	PTR FTN()void  size(2) Largest target is 0

    S54$11$0	PTR void  size(2) Largest target is 0
		 -> NULL(NULL[0]), 

    S2105$spiISR	PTR FTN()void  size(2) Largest target is 1
		 -> spi2_isr(), 

    spiMaster.spiISR	PTR FTN()void  size(2) Largest target is 1
		 -> spi2_isr(), 

    S2105$setSpiISR	PTR FTN(PTR FTN()void ,)void  size(2) Largest target is 1
		 -> spi2_setSpiISR(), 

    spiMaster.setSpiISR	PTR FTN(PTR FTN()void ,)void  size(2) Largest target is 1
		 -> spi2_setSpiISR(), 

    S2105$readByte	PTR FTN()unsigned char  size(2) Largest target is 1
		 -> spi2_readByte(), 

    spiMaster.readByte	PTR FTN()unsigned char  size(2) Largest target is 1
		 -> spi2_readByte(), 

    S2105$writeByte	PTR FTN(unsigned char ,)void  size(2) Largest target is 1
		 -> spi2_writeByte(), 

    spiMaster.writeByte	PTR FTN(unsigned char ,)void  size(2) Largest target is 1
		 -> spi2_writeByte(), 

    S2105$readBlock	PTR FTN(PTR void ,unsigned int ,)void  size(2) Largest target is 1
		 -> spi2_readBlock(), 

    spiMaster.readBlock	PTR FTN(PTR void ,unsigned int ,)void  size(2) Largest target is 1
		 -> spi2_readBlock(), 

    S2105$writeBlock	PTR FTN(PTR void ,unsigned int ,)void  size(2) Largest target is 1
		 -> spi2_writeBlock(), 

    spiMaster.writeBlock	PTR FTN(PTR void ,unsigned int ,)void  size(2) Largest target is 1
		 -> spi2_writeBlock(), 

    S2105$exchangeBlock	PTR FTN(PTR void ,unsigned int ,)void  size(2) Largest target is 1
		 -> spi2_exchangeBlock(), 

    spiMaster.exchangeBlock	PTR FTN(PTR void ,unsigned int ,)void  size(2) Largest target is 1
		 -> spi2_exchangeBlock(), 

    S2105$exchangeByte	PTR FTN(unsigned char ,)unsigned char  size(2) Largest target is 1
		 -> spi2_exchangeByte(), 

    spiMaster.exchangeByte	PTR FTN(unsigned char ,)unsigned char  size(2) Largest target is 1
		 -> spi2_exchangeByte(), 

    S2105$spiOpen	PTR FTN()unsigned char  size(2) Largest target is 1
		 -> MASTER0_open(), 

    spiMaster.spiOpen	PTR FTN()unsigned char  size(2) Largest target is 1
		 -> MASTER0_open(), 

    S2105$spiClose	PTR FTN()void  size(2) Largest target is 1
		 -> spi2_close(), 

    spiMaster.spiClose	PTR FTN()void  size(2) Largest target is 1
		 -> spi2_close(), 

    spi2_interruptHandler	PTR FTN()void  size(2) Largest target is 1
		 -> Absolute function(), 

    spi1_interruptHandler	PTR FTN()void  size(2) Largest target is 1
		 -> Absolute function(), 

    IOCAF4_SetInterruptHandler@InterruptHandler	PTR FTN()void  size(2) Largest target is 1
		 -> IOCAF4_DefaultInterruptHandler(), 

    IOCAF4_InterruptHandler	PTR FTN()void  size(2) Largest target is 1
		 -> IOCAF4_DefaultInterruptHandler(), Absolute function(), 

    IOCAF3_SetInterruptHandler@InterruptHandler	PTR FTN()void  size(2) Largest target is 1
		 -> IOCAF3_DefaultInterruptHandler(), 

    IOCAF3_InterruptHandler	PTR FTN()void  size(2) Largest target is 1
		 -> IOCAF3_DefaultInterruptHandler(), Absolute function(), 

    IOCAF2_SetInterruptHandler@InterruptHandler	PTR FTN()void  size(2) Largest target is 1
		 -> IOCAF2_DefaultInterruptHandler(), 

    IOCAF2_InterruptHandler	PTR FTN()void  size(2) Largest target is 1
		 -> IOCAF2_DefaultInterruptHandler(), Absolute function(), 

    IOCAF1_SetInterruptHandler@InterruptHandler	PTR FTN()void  size(2) Largest target is 1
		 -> IOCAF1_DefaultInterruptHandler(), 

    IOCAF1_InterruptHandler	PTR FTN()void  size(2) Largest target is 1
		 -> IOCAF1_DefaultInterruptHandler(), Absolute function(), 

    i2c1_driver_i2cISR	PTR FTN()void  size(2) Largest target is 1
		 -> Absolute function(), i2c_ISR(), 

    i2c1_driver_busCollisionISR	PTR FTN()void  size(2) Largest target is 1
		 -> Absolute function(), i2c_busCollisionISR(), 

    INT0_SetInterruptHandler@InterruptHandler	PTR FTN()void  size(2) Largest target is 1
		 -> INT0_DefaultInterruptHandler(), 

    INT0_InterruptHandler	PTR FTN()void  size(2) Largest target is 1
		 -> INT0_DefaultInterruptHandler(), Absolute function(), 

    TMR2_SetInterruptHandler@InterruptHandler	PTR FTN()void  size(2) Largest target is 1
		 -> TMR2_DefaultInterruptHandler(), 

    TMR2_InterruptHandler	PTR FTN()void  size(2) Largest target is 1
		 -> TMR2_DefaultInterruptHandler(), Absolute function(), 

    fsmStateTable	const PTR FTN()enum E10258[16] size(2) Largest target is 1
		 -> do_I2C_TX_EMPTY(), do_I2C_RX(), do_I2C_TX(), do_I2C_DO_ADDRESS_NACK(), 
		 -> do_I2C_DO_NACK_RESTART(), do_I2C_DO_NACK_STOP(), do_I2C_DO_ACK(), do_I2C_RCEN(), 
		 -> do_I2C_SEND_ADR_WRITE(), do_I2C_SEND_ADR_READ(), do_I2C_SEND_STOP(), do_I2C_SEND_RESTART(), 
		 -> do_I2C_SEND_RESTART_WRITE(), do_I2C_SEND_RESTART_READ(), do_I2C_IDLE(), do_I2C_RESET(), 

    S54$callbackPayload	PTR void [6] size(2) Largest target is 0
		 -> NULL(NULL[0]), 

    i2c_status.callbackPayload	PTR void [6] size(2) Largest target is 0
		 -> NULL(NULL[0]), 

    S54$callbackTable	PTR FTN(PTR void ,)enum E10091[6] size(2) Largest target is 1
		 -> returnReset(), returnStop(), 

    i2c_status.callbackTable	PTR FTN(PTR void ,)enum E10091[6] size(2) Largest target is 1
		 -> returnReset(), returnStop(), 

    S54$data_ptr	PTR unsigned char  size(2) Largest target is 0

    i2c_status.data_ptr	PTR unsigned char  size(2) Largest target is 0


Critical Paths under _main in COMRAM

    _main->_Delay_Xms
    _ledBlink_RGB->_Delay_Xms
    _TMR2_Initialize->_TMR2_SetInterruptHandler
    _PIN_MANAGER_Initialize->_IOCAF1_SetInterruptHandler
    _PIN_MANAGER_Initialize->_IOCAF2_SetInterruptHandler
    _PIN_MANAGER_Initialize->_IOCAF3_SetInterruptHandler
    _PIN_MANAGER_Initialize->_IOCAF4_SetInterruptHandler
    _EXT_INT_Initialize->_INT0_SetInterruptHandler

Critical Paths under _INTERRUPT_InterruptManager in COMRAM

    _INTERRUPT_InterruptManager->_i2c_ISR
    _i2c_ISR->_do_I2C_TX
    _do_I2C_TX->_i2c1_driver_TXData
    _do_I2C_TX->_i2c1_driver_isNACK
    _do_I2C_SEND_ADR_WRITE->_i2c1_driver_TXData

Critical Paths under _main in BANK0

    _main->_ledBlink_RGB
    _ledBlink_RGB->_Delay_Xms

Critical Paths under _INTERRUPT_InterruptManager in BANK0

    None.

Critical Paths under _main in BANK1

    None.

Critical Paths under _INTERRUPT_InterruptManager in BANK1

    None.

Critical Paths under _main in BANK2

    None.

Critical Paths under _INTERRUPT_InterruptManager in BANK2

    None.

Critical Paths under _main in BANK3

    None.

Critical Paths under _INTERRUPT_InterruptManager in BANK3

    None.

Critical Paths under _main in BANK4

    None.

Critical Paths under _INTERRUPT_InterruptManager in BANK4

    None.

Critical Paths under _main in BANK5

    None.

Critical Paths under _INTERRUPT_InterruptManager in BANK5

    None.

Critical Paths under _main in BANK6

    None.

Critical Paths under _INTERRUPT_InterruptManager in BANK6

    None.

Critical Paths under _main in BANK7

    None.

Critical Paths under _INTERRUPT_InterruptManager in BANK7

    None.

Critical Paths under _main in BANK8

    None.

Critical Paths under _INTERRUPT_InterruptManager in BANK8

    None.

Critical Paths under _main in BANK9

    None.

Critical Paths under _INTERRUPT_InterruptManager in BANK9

    None.

Critical Paths under _main in BANK10

    None.

Critical Paths under _INTERRUPT_InterruptManager in BANK10

    None.

Critical Paths under _main in BANK11

    None.

Critical Paths under _INTERRUPT_InterruptManager in BANK11

    None.

Critical Paths under _main in BANK12

    None.

Critical Paths under _INTERRUPT_InterruptManager in BANK12

    None.

Critical Paths under _main in BANK13

    None.

Critical Paths under _INTERRUPT_InterruptManager in BANK13

    None.

Critical Paths under _main in BANK14

    None.

Critical Paths under _INTERRUPT_InterruptManager in BANK14

    None.

Call Graph Tables:

 ---------------------------------------------------------------------------------
 (Depth) Function   	        Calls       Base Space   Used Autos Params    Refs
 ---------------------------------------------------------------------------------
 (0) _main                                                 0     0      0    4731
                          _Delay_Xms
                  _SYSTEM_Initialize
                             _SetLed
                       _ledBlink_RGB
 ---------------------------------------------------------------------------------
 (1) _ledBlink_RGB                                         4     0      4    2163
                                              4 BANK0      4     0      4
                          _Delay_Xms
                             _SetLed
 ---------------------------------------------------------------------------------
 (2) _SetLed                                               3     1      2    1282
                                             15 COMRAM     3     1      2
 ---------------------------------------------------------------------------------
 (2) _Delay_Xms                                            9     5      4     698
                                             15 COMRAM     5     1      4
                                              0 BANK0      4     4      0
 ---------------------------------------------------------------------------------
 (1) _SYSTEM_Initialize                                    0     0      0     588
                 _EXT_INT_Initialize
               _INTERRUPT_Initialize
              _OSCILLATOR_Initialize
             _PIN_MANAGER_Initialize
                     _PMD_Initialize
                    _TMR2_Initialize
 ---------------------------------------------------------------------------------
 (2) _TMR2_Initialize                                      0     0      0      98
           _TMR2_SetInterruptHandler
 ---------------------------------------------------------------------------------
 (3) _TMR2_SetInterruptHandler                             2     0      2      98
                                             15 COMRAM     2     0      2
 ---------------------------------------------------------------------------------
 (2) _PMD_Initialize                                       0     0      0       0
 ---------------------------------------------------------------------------------
 (2) _PIN_MANAGER_Initialize                               0     0      0     392
         _IOCAF1_SetInterruptHandler
         _IOCAF2_SetInterruptHandler
         _IOCAF3_SetInterruptHandler
         _IOCAF4_SetInterruptHandler
 ---------------------------------------------------------------------------------
 (3) _IOCAF4_SetInterruptHandler                           2     0      2      98
                                             15 COMRAM     2     0      2
 ---------------------------------------------------------------------------------
 (3) _IOCAF3_SetInterruptHandler                           2     0      2      98
                                             15 COMRAM     2     0      2
 ---------------------------------------------------------------------------------
 (3) _IOCAF2_SetInterruptHandler                           2     0      2      98
                                             15 COMRAM     2     0      2
 ---------------------------------------------------------------------------------
 (3) _IOCAF1_SetInterruptHandler                           2     0      2      98
                                             15 COMRAM     2     0      2
 ---------------------------------------------------------------------------------
 (2) _OSCILLATOR_Initialize                                0     0      0       0
 ---------------------------------------------------------------------------------
 (2) _INTERRUPT_Initialize                                 0     0      0       0
 ---------------------------------------------------------------------------------
 (2) _EXT_INT_Initialize                                   0     0      0      98
           _INT0_SetInterruptHandler
 ---------------------------------------------------------------------------------
 (3) _INT0_SetInterruptHandler                             2     0      2      98
                                             15 COMRAM     2     0      2
 ---------------------------------------------------------------------------------
 Estimated maximum stack depth 3
 ---------------------------------------------------------------------------------
 (Depth) Function   	        Calls       Base Space   Used Autos Params    Refs
 ---------------------------------------------------------------------------------
 (4) _INTERRUPT_InterruptManager                          10    10      0     938
                                              5 COMRAM    10    10      0
                   Absolute function *
                           _INT0_ISR
                    _PIN_MANAGER_IOC
                           _TMR2_ISR
                            _i2c_ISR *
                _i2c_busCollisionISR *
 ---------------------------------------------------------------------------------
 (5) _i2c_busCollisionISR                                  0     0      0       0
      _i2c1_driver_clearBusCollision
 ---------------------------------------------------------------------------------
 (6) _i2c1_driver_clearBusCollision                        0     0      0       0
 ---------------------------------------------------------------------------------
 (5) _i2c_ISR                                              2     2      0     938
                                              3 COMRAM     2     2      0
                      _do_I2C_DO_ACK *
             _do_I2C_DO_ADDRESS_NACK *
             _do_I2C_DO_NACK_RESTART *
                _do_I2C_DO_NACK_STOP *
                        _do_I2C_IDLE *
                        _do_I2C_RCEN *
                       _do_I2C_RESET *
                          _do_I2C_RX *
               _do_I2C_SEND_ADR_READ *
              _do_I2C_SEND_ADR_WRITE *
                _do_I2C_SEND_RESTART *
           _do_I2C_SEND_RESTART_READ *
          _do_I2C_SEND_RESTART_WRITE *
                   _do_I2C_SEND_STOP *
                          _do_I2C_TX *
                    _do_I2C_TX_EMPTY *
                 _i2c1_driver_isNACK
                     _mssp1_clearIRQ
 ---------------------------------------------------------------------------------
 (6) _mssp1_clearIRQ                                       0     0      0       0
 ---------------------------------------------------------------------------------
 (6) _do_I2C_TX_EMPTY                                      0     0      0     212
                _do_I2C_SEND_RESTART
                   _do_I2C_SEND_STOP
                       _mssp1_setIRQ
                        _returnReset *
                         _returnStop *
 ---------------------------------------------------------------------------------
 (7) _mssp1_setIRQ                                         0     0      0       0
 ---------------------------------------------------------------------------------
 (6) _do_I2C_TX                                            2     2      0     258
                                              1 COMRAM     2     2      0
           _do_I2C_SEND_RESTART_READ
          _do_I2C_SEND_RESTART_WRITE
                   _do_I2C_SEND_STOP
                 _i2c1_driver_TXData
                 _i2c1_driver_isNACK
                        _returnReset *
                         _returnStop *
 ---------------------------------------------------------------------------------
 (6) _i2c1_driver_isNACK                                   1     1      0       0
                                              0 COMRAM     1     1      0
 ---------------------------------------------------------------------------------
 (7) _do_I2C_SEND_RESTART_WRITE                            0     0      0       0
                _i2c1_driver_restart
 ---------------------------------------------------------------------------------
 (7) _do_I2C_SEND_RESTART_READ                             0     0      0       0
                _i2c1_driver_restart
 ---------------------------------------------------------------------------------
 (6) _do_I2C_SEND_ADR_WRITE                                0     0      0      22
                 _i2c1_driver_TXData
 ---------------------------------------------------------------------------------
 (6) _do_I2C_SEND_ADR_READ                                 0     0      0      22
                 _i2c1_driver_TXData
 ---------------------------------------------------------------------------------
 (7) _i2c1_driver_TXData                                   1     1      0      22
                                              0 COMRAM     1     1      0
 ---------------------------------------------------------------------------------
 (6) _do_I2C_RX                                            0     0      0     212
             _do_I2C_DO_NACK_RESTART
                _do_I2C_DO_NACK_STOP
              _i2c1_driver_getRXData
                _i2c1_driver_sendACK
                        _returnReset *
                         _returnStop *
 ---------------------------------------------------------------------------------
 (7) _i2c1_driver_getRXData                                0     0      0       0
 ---------------------------------------------------------------------------------
 (7) _do_I2C_DO_NACK_STOP                                  0     0      0       0
               _i2c1_driver_sendNACK
 ---------------------------------------------------------------------------------
 (7) _do_I2C_DO_NACK_RESTART                               0     0      0       0
               _i2c1_driver_sendNACK
 ---------------------------------------------------------------------------------
 (8) _i2c1_driver_sendNACK                                 0     0      0       0
 ---------------------------------------------------------------------------------
 (6) _do_I2C_RESET                                         0     0      0       0
               _i2c1_driver_resetBus
 ---------------------------------------------------------------------------------
 (7) _i2c1_driver_resetBus                                 0     0      0       0
 ---------------------------------------------------------------------------------
 (6) _do_I2C_RCEN                                          0     0      0       0
                _i2c1_driver_startRX
 ---------------------------------------------------------------------------------
 (7) _i2c1_driver_startRX                                  0     0      0       0
 ---------------------------------------------------------------------------------
 (6) _do_I2C_IDLE                                          0     0      0       0
 ---------------------------------------------------------------------------------
 (6) _do_I2C_DO_ADDRESS_NACK                               0     0      0     212
                _do_I2C_SEND_RESTART
                   _do_I2C_SEND_STOP
                        _returnReset *
                         _returnStop *
 ---------------------------------------------------------------------------------
 (7) _returnStop                                           2     0      2       0
                                              0 COMRAM     2     0      2
 ---------------------------------------------------------------------------------
 (7) _returnReset                                          2     0      2     212
                                              0 COMRAM     2     0      2
 ---------------------------------------------------------------------------------
 (7) _do_I2C_SEND_STOP                                     0     0      0       0
                   _i2c1_driver_stop
 ---------------------------------------------------------------------------------
 (8) _i2c1_driver_stop                                     0     0      0       0
 ---------------------------------------------------------------------------------
 (7) _do_I2C_SEND_RESTART                                  0     0      0       0
                _i2c1_driver_restart
 ---------------------------------------------------------------------------------
 (8) _i2c1_driver_restart                                  0     0      0       0
 ---------------------------------------------------------------------------------
 (6) _do_I2C_DO_ACK                                        0     0      0       0
                _i2c1_driver_sendACK
 ---------------------------------------------------------------------------------
 (7) _i2c1_driver_sendACK                                  0     0      0       0
 ---------------------------------------------------------------------------------
 (5) _TMR2_ISR                                             0     0      0       0
                      _TMR2_CallBack
 ---------------------------------------------------------------------------------
 (6) _TMR2_CallBack                                        0     0      0       0
                   Absolute function *
       _TMR2_DefaultInterruptHandler *
 ---------------------------------------------------------------------------------
 (7) _TMR2_DefaultInterruptHandler                         0     0      0       0
 ---------------------------------------------------------------------------------
 (5) _PIN_MANAGER_IOC                                      0     0      0       0
                         _IOCAF1_ISR
                         _IOCAF2_ISR
                         _IOCAF3_ISR
                         _IOCAF4_ISR
 ---------------------------------------------------------------------------------
 (6) _IOCAF4_ISR                                           0     0      0       0
                   Absolute function *
     _IOCAF4_DefaultInterruptHandler *
 ---------------------------------------------------------------------------------
 (7) _IOCAF4_DefaultInterruptHandler                       0     0      0       0
 ---------------------------------------------------------------------------------
 (6) _IOCAF3_ISR                                           0     0      0       0
                   Absolute function *
     _IOCAF3_DefaultInterruptHandler *
 ---------------------------------------------------------------------------------
 (7) _IOCAF3_DefaultInterruptHandler                       0     0      0       0
 ---------------------------------------------------------------------------------
 (6) _IOCAF2_ISR                                           0     0      0       0
                   Absolute function *
     _IOCAF2_DefaultInterruptHandler *
 ---------------------------------------------------------------------------------
 (7) _IOCAF2_DefaultInterruptHandler                       0     0      0       0
 ---------------------------------------------------------------------------------
 (6) _IOCAF1_ISR                                           0     0      0       0
                   Absolute function *
     _IOCAF1_DefaultInterruptHandler *
 ---------------------------------------------------------------------------------
 (7) _IOCAF1_DefaultInterruptHandler                       0     0      0       0
 ---------------------------------------------------------------------------------
 (5) _INT0_ISR                                             0     0      0       0
                      _INT0_CallBack
 ---------------------------------------------------------------------------------
 (6) _INT0_CallBack                                        0     0      0       0
                   Absolute function *
       _INT0_DefaultInterruptHandler *
 ---------------------------------------------------------------------------------
 (7) _INT0_DefaultInterruptHandler                         0     0      0       0
 ---------------------------------------------------------------------------------
 (7) Absolute function(Fake)                               0     0      0       0
 ---------------------------------------------------------------------------------
 Estimated maximum stack depth 8
 ---------------------------------------------------------------------------------

 Call Graph Graphs:

 _main (ROOT)
   _Delay_Xms
   _SYSTEM_Initialize
     _EXT_INT_Initialize
       _INT0_SetInterruptHandler
     _INTERRUPT_Initialize
     _OSCILLATOR_Initialize
     _PIN_MANAGER_Initialize
       _IOCAF1_SetInterruptHandler
       _IOCAF2_SetInterruptHandler
       _IOCAF3_SetInterruptHandler
       _IOCAF4_SetInterruptHandler
     _PMD_Initialize
     _TMR2_Initialize
       _TMR2_SetInterruptHandler
   _SetLed
   _ledBlink_RGB
     _Delay_Xms
     _SetLed

 _INTERRUPT_InterruptManager (ROOT)
   Absolute function(Fake) *
   _INT0_ISR *
     _INT0_CallBack
       Absolute function(Fake) *
       _INT0_DefaultInterruptHandler *
   _PIN_MANAGER_IOC *
     _IOCAF1_ISR
       Absolute function(Fake) *
       _IOCAF1_DefaultInterruptHandler *
     _IOCAF2_ISR
       Absolute function(Fake) *
       _IOCAF2_DefaultInterruptHandler *
     _IOCAF3_ISR
       Absolute function(Fake) *
       _IOCAF3_DefaultInterruptHandler *
     _IOCAF4_ISR
       Absolute function(Fake) *
       _IOCAF4_DefaultInterruptHandler *
   _TMR2_ISR *
     _TMR2_CallBack
       Absolute function(Fake) *
       _TMR2_DefaultInterruptHandler *
   _i2c_ISR *
     _do_I2C_DO_ACK *
       _i2c1_driver_sendACK
     _do_I2C_DO_ADDRESS_NACK *
       _do_I2C_SEND_RESTART
         _i2c1_driver_restart
       _do_I2C_SEND_STOP
         _i2c1_driver_stop
       _returnReset *
       _returnStop *
     _do_I2C_DO_NACK_RESTART *
       _i2c1_driver_sendNACK
     _do_I2C_DO_NACK_STOP *
       _i2c1_driver_sendNACK
     _do_I2C_IDLE *
     _do_I2C_RCEN *
       _i2c1_driver_startRX
     _do_I2C_RESET *
       _i2c1_driver_resetBus
     _do_I2C_RX *
       _do_I2C_DO_NACK_RESTART
         _i2c1_driver_sendNACK
       _do_I2C_DO_NACK_STOP
         _i2c1_driver_sendNACK
       _i2c1_driver_getRXData
       _i2c1_driver_sendACK
       _returnReset *
       _returnStop *
     _do_I2C_SEND_ADR_READ *
       _i2c1_driver_TXData
     _do_I2C_SEND_ADR_WRITE *
       _i2c1_driver_TXData
     _do_I2C_SEND_RESTART *
       _i2c1_driver_restart
     _do_I2C_SEND_RESTART_READ *
       _i2c1_driver_restart
     _do_I2C_SEND_RESTART_WRITE *
       _i2c1_driver_restart
     _do_I2C_SEND_STOP *
       _i2c1_driver_stop
     _do_I2C_TX *
       _do_I2C_SEND_RESTART_READ
         _i2c1_driver_restart
       _do_I2C_SEND_RESTART_WRITE
         _i2c1_driver_restart
       _do_I2C_SEND_STOP
         _i2c1_driver_stop
       _i2c1_driver_TXData
       _i2c1_driver_isNACK
       _returnReset *
       _returnStop *
     _do_I2C_TX_EMPTY *
       _do_I2C_SEND_RESTART
         _i2c1_driver_restart
       _do_I2C_SEND_STOP
         _i2c1_driver_stop
       _mssp1_setIRQ
       _returnReset *
       _returnStop *
     _i2c1_driver_isNACK *
     _mssp1_clearIRQ *
   _i2c_busCollisionISR *
     _i2c1_driver_clearBusCollision

 Address spaces:
Name               Size   Autos  Total    Cost      Usage
BIGRAM             E87      0       0      35        0.0%
EEDATA             400      0       0       0        0.0%
BITBANK13          100      0       0      31        0.0%
BANK13             100      0       0      32        0.0%
BITBANK12          100      0       0      29        0.0%
BANK12             100      0       0      30        0.0%
BITBANK11          100      0       0      27        0.0%
BANK11             100      0       0      28        0.0%
BITBANK10          100      0       0      25        0.0%
BANK10             100      0       0      26        0.0%
BITBANK9           100      0       0      23        0.0%
BANK9              100      0       0      24        0.0%
BITBANK8           100      0       0      21        0.0%
BANK8              100      0       0      22        0.0%
BITBANK7           100      0       0      19        0.0%
BANK7              100      0       0      20        0.0%
BITBANK6           100      0       0      17        0.0%
BANK6              100      0       0      18        0.0%
BITBANK5           100      0       0      15        0.0%
BANK5              100      0       0      16        0.0%
BITBANK4           100      0       0      13        0.0%
BANK4              100      0       0      14        0.0%
BITBANK3           100      0       0      11        0.0%
BANK3              100      0       0      12        0.0%
BITBANK2           100      0       0       9        0.0%
BANK2              100      0       0      10        0.0%
BITBANK1           100      0       0       7        0.0%
BANK1              100      0       0       8        0.0%
BITBANK0            A0      0       0       4        0.0%
BANK0               A0      8       8       5        5.0%
BITBANK14           88      0       0      33        0.0%
BANK14              88      0       0      34        0.0%
BITCOMRAM           5E      0       0       0        0.0%
COMRAM              5E     14      4C       1       80.9%
BITSFR_2             0      0       0     200        0.0%
SFR_2                0      0       0     200        0.0%
BITSFR_1             0      0       0     200        0.0%
SFR_1                0      0       0     200        0.0%
BITSFR               0      0       0     200        0.0%
SFR                  0      0       0     200        0.0%
STACK                0      0       0       2        0.0%
NULL                 0      0       0       0        0.0%
ABS                  0      0      54       6        0.0%
DATA                 0      0      54       3        0.0%
CODE                 0      0       0       0        0.0%


Microchip Technology PIC18 Macro Assembler V2.05 build -831301201 
Symbol Table                                                                                   Thu Jun 20 23:51:34 2019

                              returnReset@p 002D            __end_of_TMR2_SetInterruptHandler 1526  
                               __CFG_CP$OFF 000000                              _spi2_setSpiISR 000000  
                      __size_of_do_I2C_IDLE 000A                         _do_I2C_SEND_RESTART 15A0  
                      __size_of_do_I2C_RCEN 000A                                 __CFG_LVP$ON 000000  
                                       l763 1366                                         l757 135A  
                                       l769 1372                                         _PR2 000FBC  
                              __CFG_CPD$OFF 000000                  ??_INT0_SetInterruptHandler 003E  
                   __size_of_PMD_Initialize 001C                             _TMR2_Initialize 1322  
                     __size_of_do_I2C_RESET 000E                                         tosl 000FFD  
                                       wreg 000FE8                               _INT0_CallBack 1448  
        __end_of_IOCAF2_SetInterruptHandler 1544                  _IOCAF2_SetInterruptHandler 153A  
                              __CFG_ZCD$OFF 000000                                        l3022 11AC  
                                      l2800 135C                                        l2802 1368  
                                      l2994 1206                                        l2998 1224  
                                      u1057 120C                                        _LATA 000F83  
                                      _LATB 000F84                                        _LATC 000F85  
                                      _LATD 000F86                                        _LATE 000F87  
                                      _T2PR 000FBC                                        _PMD0 000EE1  
                                      _PMD1 000EE2                                        _PMD2 000EE3  
                                      _PMD3 000EE4                                        _PMD4 000EE5  
                                      _PMD5 000EE6                        ?_do_I2C_SEND_RESTART 002D  
                                      _TMR2 000FBB                                        _WPUA 000F10  
                                      _WPUB 000F18                                        _WPUC 000F20  
                                      _WPUD 000F25                                        _WPUE 000F2D  
                             __CFG_FCMEN$ON 000000           __size_of_do_I2C_SEND_RESTART_READ 0008  
                 ?_do_I2C_SEND_RESTART_READ 002D                                        _main 118E  
                 __size_of_do_I2C_SEND_STOP 0008                      __size_of_do_I2C_DO_ACK 0008  
                                      fsr2h 000FDA                                        indf2 000FDF  
                                      fsr2l 000FD9                                        btemp 004D  
                     ?_do_I2C_SEND_ADR_READ 002D                                        prodh 000FF4  
                                      prodl 000FF3             ??_i2c1_driver_clearBusCollision 002D  
                                      start 00B8                              _spi2_writeByte 000000  
                             __CFG_CSWEN$ON 000000                             __end_of_i2c_ISR 1292  
                              ___param_bank 000000                               __CFG_SCANE$ON 000000  
                  ??_do_I2C_DO_NACK_RESTART 002D                                _do_I2C_RESET 150E  
                          __end_of_INT0_ISR 1580                         __size_of_IOCAF1_ISR 0024  
            __size_of_OSCILLATOR_Initialize 0018                         __size_of_IOCAF2_ISR 0024  
                       __size_of_IOCAF3_ISR 0024                         __size_of_IOCAF4_ISR 0024  
             __end_of_OSCILLATOR_Initialize 14B4                                       ?_main 002D  
                  __end_of_i2c1_driver_stop 15FC                               __CFG_WDTE$OFF 000000  
                                     _T2CON 000FBD                                       _T2HLT 000FBE  
                __end_of_i2c1_driver_TXData 15C0                              __CFG_DEBUG$OFF 000000  
                                     _T2TMR 000FBB                                       _T2RST 000FC0  
                                     i2l157 1076                                       i2l173 114A  
                                     i2l370 004C                                       i2l373 0066  
                                     i2l374 008C                                       i2l375 0082  
                                     i2l368 0040                                       _OSCEN 000EDC  
                                     _TRISA 000F88                                       _TRISB 000F89  
                            ?_INT0_CallBack 002D                                       _TRISC 000F8A  
                                     _TRISD 000F8B                                       _TRISE 000F8C  
                             __CFG_WRT0$OFF 000000                               __CFG_WRT1$OFF 000000  
                             __CFG_WRT2$OFF 000000                               __CFG_WRT3$OFF 000000  
                            __CFG_EBTR0$OFF 000000                              __CFG_EBTR1$OFF 000000  
                            __CFG_EBTR2$OFF 000000                              __CFG_EBTR3$OFF 000000  
                          __end_of_TMR2_ISR 1576                               __CFG_WRTB$OFF 000000  
                             __CFG_WRTC$OFF 000000                               __CFG_WRTD$OFF 000000  
                            __CFG_EBTRB$OFF 000000                     __end_of_PIN_MANAGER_IOC 139A  
                __end_of_i2c1_driver_isNACK 14F2                  ?_do_I2C_SEND_RESTART_WRITE 002D  
                        __CFG_MCLRE$EXTMCLR 000000                       ??_do_I2C_SEND_RESTART 002D  
                                     pclath 000FFA                                       tablat 000FF5  
                   __size_of_mssp1_clearIRQ 0006                             _spi2_writeBlock 000000  
                    ?_do_I2C_SEND_ADR_WRITE 002D                                       ttemp5 004E  
                                     ttemp6 0051                                       ttemp7 0055  
                                     status 000FD8                                       wtemp8 004E  
                             _fsmStateTable 0F01                             __initialization 14CC  
                                _i2c_status 0001                                __end_of_main 11F2  
                      __end_of_ledBlink_RGB 1122                     __end_of_TMR2_Initialize 134E  
               ?_INTERRUPT_InterruptManager 002D                          __size_of_Delay_Xms 0050  
                             _do_I2C_DO_ACK 1590                    _TMR2_SetInterruptHandler 151C  
                                    ??_main 0041                               _do_I2C_TX$306 002E  
             __size_of_i2c1_driver_sendNACK 0006                               __activetblptr 000003  
                   _IOCAF4_InterruptHandler 0041               __size_of_i2c1_driver_resetBus 0002  
                   ?_do_I2C_DO_ADDRESS_NACK 002D                ??_IOCAF3_SetInterruptHandler 003E  
                                    _ANSELA 000F11                                      _ANSELB 000F19  
                                    _ANSELC 000F21                                      _ANSELD 000F26  
                                    _ANSELE 000F2E                                      _RB1PPS 000EF0  
                                    _RB4PPS 000EF3                                      _RB5PPS 000EF4  
                                    _RC4PPS 000EFB                                      _ODCONA 000F0F  
                                    _ODCONB 000F17                                      _ODCONC 000F1F  
                                    _ODCOND 000F24                                      _ODCONE 000F2C  
                            __CFG_WDTCCS$SC 000000                                      i2l2710 1154  
                                    i2l2720 1296                                      i2l2730 12A4  
                                    i2l2650 12EA                                      i2l2706 114E  
                                    i2l2724 129C                                      i2l2660 12F6  
                                    i2l2716 115A                                      i2l2654 12F0  
                                    i2l2670 1036                                      i2l2736 12AA  
                                    i2l2680 1042                                      i2l2674 103C  
                                    i2l2666 1030                                      i2l2844 1256  
                                    i2l2688 10A0                                      _OSCFRQ 000EDE  
                    ??_do_I2C_SEND_ADR_READ 002D                                   ??_i2c_ISR 0030  
                            __CFG_PWRTE$OFF 000000                              __CFG_XINST$OFF 000000  
                                    _SetLed 134E                       _i2c1_driver_getRXData 15E8  
                         ledBlink_RGB@delay 0064                 __end_of_do_I2C_DO_NACK_STOP 1590  
     __end_of_i2c1_driver_clearBusCollision 15CC      __size_of_i2c1_driver_clearBusCollision 0006  
             _i2c1_driver_clearBusCollision 15C6                              __CFG_STVREN$ON 000000  
           __size_of_do_I2C_DO_NACK_RESTART 0008                                      clear_0 14D2  
                            ?_do_I2C_DO_ACK 002D         __size_of_IOCAF3_SetInterruptHandler 000A  
                           ??_INT0_CallBack 002D                 __end_of_i2c1_driver_sendACK 15E4  
                            _PMD_Initialize 1466              __end_of_do_I2C_DO_ADDRESS_NACK 1322  
                              __mediumconst 0000                 __end_of_i2c1_driver_restart 1600  
                                    tblptrh 000FF7                                      tblptrl 000FF6  
                                    tblptru 000FF8                                ?_returnReset 002D  
               __end_of_i2c1_driver_startRX 15F0  IOCAF4_SetInterruptHandler@InterruptHandler 003C  
IOCAF3_SetInterruptHandler@InterruptHandler 003C  IOCAF2_SetInterruptHandler@InterruptHandler 003C  
IOCAF1_SetInterruptHandler@InterruptHandler 003C    INT0_SetInterruptHandler@InterruptHandler 003C  
  TMR2_SetInterruptHandler@InterruptHandler 003C                            ?_PIN_MANAGER_IOC 002D  
                              ??_IOCAF1_ISR 002D                                ??_IOCAF2_ISR 002D  
                              ??_IOCAF3_ISR 002D                                ??_IOCAF4_ISR 002D  
             __size_of_INTERRUPT_Initialize 0004                           _SYSTEM_Initialize 1482  
                         __end_of_Delay_Xms 1242                                  __accesstop 0060  
                   __end_of__initialization 14D8                                   ?_INT0_ISR 002D  
                          _do_I2C_SEND_STOP 1598      __end_of_IOCAF1_DefaultInterruptHandler 160C  
   __size_of_IOCAF1_DefaultInterruptHandler 0002              _IOCAF1_DefaultInterruptHandler 160A  
                     __end_of_TMR2_CallBack 1448                          __size_of_do_I2C_RX 006C  
                        __size_of_do_I2C_TX 0086                          ?_SYSTEM_Initialize 002D  
                             ___rparam_used 000001                    __size_of_do_I2C_TX_EMPTY 0050  
                __end_of_spi2_configuration 0F3D                              __pcstackCOMRAM 002D  
                       ??_SYSTEM_Initialize 003E                                   ?_TMR2_ISR 002D  
    __end_of_IOCAF4_DefaultInterruptHandler 1606     __size_of_IOCAF4_DefaultInterruptHandler 0002  
            _IOCAF4_DefaultInterruptHandler 1604                            ?_TMR2_Initialize 002D  
                    __end_of_PMD_Initialize 1482                          __end_of_IOCAF1_ISR 142A  
                        __end_of_IOCAF2_ISR 1406                          __end_of_IOCAF3_ISR 13E2  
                        __end_of_IOCAF4_ISR 13BE                          _spi1_configuration 0F3D  
               __size_of_EXT_INT_Initialize 0018                 ?_IOCAF2_SetInterruptHandler 003C  
          ??_IOCAF2_DefaultInterruptHandler 002D             ?_IOCAF2_DefaultInterruptHandler 002D  
                    _do_I2C_DO_NACK_RESTART 1580                   __end_of_SYSTEM_Initialize 149C  
                            _mssp1_clearIRQ 15CC                       _INT0_InterruptHandler 0049  
                                ??_INT0_ISR 002D                                  __pnvCOMRAM 0041  
                     __size_of_ledBlink_RGB 0076                      ?_i2c1_driver_getRXData 002D  
                                   ?_SetLed 003C                __size_of_i2c_busCollisionISR 0006  
                             ??_do_I2C_IDLE 002D                               ??_do_I2C_RCEN 002D  
                           __CFG_PPS1WAY$ON 000000                                  ??_TMR2_ISR 002D  
                           ??_do_I2C_DO_ACK 002D                             ?_PMD_Initialize 002D  
            ?_i2c1_driver_clearBusCollision 002D                           __end_of_do_I2C_RX 118E  
                            Delay_Xms@delay 003C                           __end_of_do_I2C_TX 10AC  
                         ?_i2c1_driver_stop 002D                                     _INT0PPS 000EA1  
        __end_of_IOCAF3_SetInterruptHandler 153A                  _IOCAF3_SetInterruptHandler 1530  
                        ??_i2c1_driver_stop 002D                                     _OSCCON1 000ED8  
                                   _OSCCON3 000EDA                               ?_mssp1_setIRQ 002D  
                                   i2u10_48 1436                                     i2u12_48 1454  
                                   i2u20_48 13A6                                     i2u20_49 13B8  
                                   i2u14_48 1412                                     i2u14_49 1424  
                                   i2u16_48 13EE                                     i2u16_49 1400  
                                   i2u18_48 13CA                                     i2u18_49 13DC  
                                   i2u70_40 14EC                                     _OSCTUNE 000EDD  
                                   i2u70_48 14EE                                     i2u71_48 1302  
                                   i2u71_49 1314                                     i2u73_48 104E  
                                   i2u73_49 1060                                     i2u76_48 1166  
                                   i2u76_49 1178                                     i2u77_48 12B6  
                                   i2u77_49 12C8                                     i2u87_48 127C  
                                   i2u87_49 128E                                     _SSP1ADD 000F93  
                                   _SSP2ADD 000E93                                     i2u98_48 005A  
                                   _SLRCONA 000F0E                                     _SLRCONB 000F16  
                                   _SLRCONC 000F1E                                     _SLRCOND 000F23  
                                   _SLRCONE 000F2B                                     _SSP1BUF 000F92  
                    __end_of_mssp1_clearIRQ 15D2                                     _SSP2BUF 000E92  
                                   _SSP1MSK 000F94                                _ledBlink_RGB 10AC  
                   ??_do_I2C_SEND_ADR_WRITE 002E                 ??_do_I2C_SEND_RESTART_WRITE 002D  
                        _i2c1_driver_TXData 15B8                          _i2c1_driver_i2cISR 0029  
                                   _i2c_ISR 1242           __size_of_INT0_SetInterruptHandler 000A  
                                   SetLed@B 003D                                     SetLed@G 003C  
                                   SetLed@R 003E                   ?_INT0_SetInterruptHandler 003C  
                                   __Hparam 0000                          _i2c1_driver_isNACK 14E2  
                       ?_i2c1_driver_TXData 002D                                     __Lparam 0000  
                ??_TMR2_SetInterruptHandler 003E                             __size_of_SetLed 0028  
                __CFG_RSTOSC$HFINTOSC_64MHZ 000000                                __psmallconst 0F00  
                         ??_do_I2C_TX_EMPTY 002D                         ?_i2c1_driver_isNACK 002D  
                                   __pcinit 14CC                                     __ramtop 0F00  
                                   __ptext0 118E                                     __ptext1 10AC  
                                   __ptext2 134E                                     __ptext3 11F2  
                                   __ptext4 1482                                     __ptext5 1322  
                                   __ptext6 151C                                     __ptext7 1466  
                                   __ptext8 0F42                                     __ptext9 1526  
                       __end_of_do_I2C_IDLE 156C                         __end_of_do_I2C_RCEN 1562  
                     _OSCILLATOR_Initialize 149C                                   _T2CONbits 000FBD  
               __end_of_do_I2C_SEND_RESTART 15A8                              ??_mssp1_setIRQ 002D  
                      ??_i2c1_driver_TXData 002D                    ??_PIN_MANAGER_Initialize 003E  
                                 _T2HLTbits 000FBE                                   _IOCAFbits 000F0A  
                                 _IOCANbits 000F0B                                   _IOCAPbits 000F0C  
                                _spi2_close 000000                             ?_mssp1_clearIRQ 002D  
                  _do_I2C_SEND_RESTART_READ 15B0                  __size_of_SYSTEM_Initialize 001A  
                      __size_of_returnReset 0004                        end_of_initialization 14D8  
                                 _T2RSTbits 000FC0                        ??_i2c1_driver_isNACK 002D  
              __end_of_i2c1_driver_sendNACK 15DE                           __end_of_spiMaster 0F35  
              __end_of_i2c1_driver_resetBus 1602                            __CFG_CLKOUTEN$ON 000000  
                                   postinc0 000FEE                   _do_I2C_SEND_RESTART_WRITE 15A8  
                     __CFG_WDTCPS$WDTCPS_31 000000                                  _returnStop 15F4  
                  __end_of_do_I2C_SEND_STOP 15A0                               _spi2_readByte 000000  
                                 _TRISBbits 000F89                ??_IOCAF1_SetInterruptHandler 003E  
              ??_IOCAF4_SetInterruptHandler 003E                                 returnStop@p 002D  
                          __CFG_FEXTOSC$OFF 000000                                _MASTER0_open 000000  
                     _spi1_interruptHandler 0027               __size_of_do_I2C_SEND_ADR_READ 000E  
                                 _Delay_Xms 11F2                           __size_of_INT0_ISR 000A  
                               _do_I2C_IDLE 1562                              __end_of_SetLed 1376  
                               _do_I2C_RCEN 1558                __end_of_INTERRUPT_Initialize 15E8  
      __end_of_TMR2_DefaultInterruptHandler 1604       __size_of_TMR2_DefaultInterruptHandler 0002  
              _TMR2_DefaultInterruptHandler 1602        __end_of_INT0_DefaultInterruptHandler 160E  
     __size_of_INT0_DefaultInterruptHandler 0002                _INT0_DefaultInterruptHandler 160C  
       __size_of_IOCAF1_SetInterruptHandler 000A                           __size_of_TMR2_ISR 000A  
       __size_of_IOCAF4_SetInterruptHandler 000A                      ?_OSCILLATOR_Initialize 002D  
              __size_of_do_I2C_DO_NACK_STOP 0008                       __end_of_INT0_CallBack 1466  
                        _spi2_configuration 0F35                     ?_do_I2C_DO_NACK_RESTART 002D  
                       start_initialization 14CC                         _i2c_busCollisionISR 15C0  
           __size_of_PIN_MANAGER_Initialize 00E4                __size_of_i2c1_driver_sendACK 0006  
                   ??_i2c1_driver_getRXData 002D                __size_of_i2c1_driver_restart 0004  
              __size_of_i2c1_driver_startRX 0004                    __size_of_PIN_MANAGER_IOC 0024  
                                ?_Delay_Xms 003C      __end_of_IOCAF2_DefaultInterruptHandler 160A  
   __size_of_IOCAF2_DefaultInterruptHandler 0002              _IOCAF2_DefaultInterruptHandler 1608  
                      ?_i2c_busCollisionISR 002D                                    ??_SetLed 003E  
                          __CFG_LPBOREN$OFF 000000                        __end_of_mssp1_setIRQ 15D8  
                          ??_PMD_Initialize 003C                               ?_do_I2C_RESET 002D  
                __end_of_EXT_INT_Initialize 14CC               ?_TMR2_DefaultInterruptHandler 002D  
             ?_INT0_DefaultInterruptHandler 002D                                 ?_returnStop 002D  
            __end_of_do_I2C_DO_NACK_RESTART 1588                        _i2c1_driver_sendNACK 15D8  
                    __size_of_TMR2_CallBack 001E                                 __pbssCOMRAM 0001  
          __end_of_INT0_SetInterruptHandler 1558                        _i2c1_driver_resetBus 1600  
                             __pcstackBANK0 0060                 ?_IOCAF3_SetInterruptHandler 003C  
                  __size_of_TMR2_Initialize 002C                                   _do_I2C_RX 1122  
                                 _do_I2C_TX 1026            ??_IOCAF3_DefaultInterruptHandler 002D  
           ?_IOCAF3_DefaultInterruptHandler 002D              __size_of_do_I2C_SEND_ADR_WRITE 000E  
             __end_of_do_I2C_SEND_ADR_WRITE 1500                   __size_of_i2c1_driver_stop 0004  
                                  ?_i2c_ISR 002D                             _do_I2C_TX_EMPTY 1292  
                   _IOCAF1_InterruptHandler 0047                       ??_i2c_busCollisionISR 002D  
                     __end_of_fsmStateTable 0F21                      _PIN_MANAGER_Initialize 0F42  
                                 __pintcode 0008                              ??_do_I2C_RESET 002D  
                  ??_do_I2C_DO_ADDRESS_NACK 002D                 _i2c1_driver_busCollisionISR 002B  
                     __end_of_do_I2C_DO_ACK 1598                ??_INTERRUPT_InterruptManager 0032  
                     _spi2_interruptHandler 0025                  ??_do_I2C_SEND_RESTART_READ 002D  
                     ?_i2c1_driver_sendNACK 002D                            ??_mssp1_clearIRQ 002D  
                               __smallconst 0F00                       ?_i2c1_driver_resetBus 002D  
        __size_of_do_I2C_SEND_RESTART_WRITE 0008          __end_of_IOCAF1_SetInterruptHandler 154E  
                _IOCAF1_SetInterruptHandler 1544          __end_of_IOCAF4_SetInterruptHandler 1530  
                _IOCAF4_SetInterruptHandler 1526                                  ?_do_I2C_RX 002D  
                                ?_do_I2C_TX 002D                                    _T2CLKCON 000FBF  
                      _INTERRUPT_Initialize 15E4                                    _INT0_ISR 1576  
                                  _LATCbits 000F85                         __size_of_returnStop 0004  
                             _TMR2_CallBack 142A                                    _PIE0bits 000EC2  
                                  _PIE3bits 000EC5                                    _PIE4bits 000EC6  
                       __CFG_BORV$VBOR_2P45 000000                                 ??_Delay_Xms 0040  
                                  i2u101_48 0070         __size_of_INTERRUPT_InterruptManager 00B0  
                                  _PIR0bits 000ECA                                    _PIR3bits 000ECD  
                                  _PIR4bits 000ECE                                   _spiMaster 0F21  
                                  _SSP1CON1 000F96                                    _SSP1CON2 000F97  
                                  _SSP2CON1 000E96                                    _SSP2CON2 000E97  
                                  _TMR2_ISR 156C                                    _SSP1STAT 000F95  
                                  _SSP2STAT 000E95                           ??_PIN_MANAGER_IOC 002D  
                         ?_do_I2C_SEND_STOP 002D              ??_TMR2_DefaultInterruptHandler 002D  
         __size_of_TMR2_SetInterruptHandler 000A              ??_INT0_DefaultInterruptHandler 002D  
                             ??_returnReset 002F                   ?_TMR2_SetInterruptHandler 003C  
                        ??_do_I2C_SEND_STOP 002D                 __size_of_i2c1_driver_TXData 0008  
         __end_of_do_I2C_SEND_RESTART_WRITE 15B0                     __end_of_do_I2C_TX_EMPTY 12E2  
                     ?_INTERRUPT_Initialize 002D                    _INT0_SetInterruptHandler 154E  
              __size_of_do_I2C_SEND_RESTART 0008                 __size_of_i2c1_driver_isNACK 0010  
                        _spi2_exchangeBlock 000000                       __size_of_mssp1_setIRQ 0006  
                         ??_TMR2_Initialize 003E                              ?_TMR2_CallBack 002D  
                       _do_I2C_DO_NACK_STOP 1588                            __size_of_i2c_ISR 0050  
                                  __Hrparam 0000                                    __Lrparam 0000  
                        __CFG_BOREN$SBORDIS 000000                                ?_do_I2C_IDLE 002D  
                              ?_do_I2C_RCEN 002D                     ??_OSCILLATOR_Initialize 003C  
                       _i2c1_driver_sendACK 15DE             __size_of_do_I2C_DO_ADDRESS_NACK 0040  
                       i2c1_driver_TXData@d 002D                      ??_i2c1_driver_sendNACK 002D  
                       _i2c1_driver_restart 15FC                        ?_do_I2C_DO_NACK_STOP 002D  
                       _i2c1_driver_startRX 15EC                __end_of_do_I2C_SEND_ADR_READ 150E  
                    ??_i2c1_driver_resetBus 002D                     _IOCAF2_InterruptHandler 0045  
                              _mssp1_setIRQ 15D2                                 ??_do_I2C_RX 002D  
                               ??_do_I2C_TX 002E                ??_IOCAF2_SetInterruptHandler 003E  
                                  __ptext10 1530                                    __ptext11 153A  
                                  __ptext20 1242                                    __ptext12 1544  
                                  __ptext21 15CC                                    __ptext13 149C  
                                  __ptext30 1500                                    __ptext22 1122  
                                  __ptext14 15E4                                    __ptext31 1598  
                                  __ptext23 1026                                    __ptext15 14B4  
                                  __ptext40 15B8                                    __ptext32 15A0  
                                  __ptext24 12E2                                    __ptext16 154E  
                                  __ptext41 15E8                                    __ptext33 15A8  
                                  __ptext25 1580                                    __ptext50 156C  
                                  __ptext42 15D8                                    __ptext34 15B0  
                                  __ptext26 1588                                    __ptext18 15C0  
                                  __ptext51 142A                                    __ptext43 1600  
                                  __ptext35 1562                                    __ptext27 1590  
                                  __ptext19 15C6                                    __ptext60 1406  
                                  __ptext52 1602                                    __ptext44 15EC  
                                  __ptext36 150E                                    __ptext28 1558  
                                  __ptext61 160A                                    __ptext53 1376  
                                  __ptext45 15F0                                    __ptext37 1292  
                                  __ptext29 14F2                                    __ptext62 1576  
                                  __ptext54 139A                                    __ptext46 15F4  
                                  __ptext38 15D2                                    __ptext63 1448  
                                  __ptext55 1604                                    __ptext47 15F8  
                                  __ptext39 14E2                                    __ptext64 160C  
                                  __ptext56 13BE                                    __ptext48 15FC  
                                  __ptext65 0000                                    __ptext57 1606  
                                  __ptext49 15DE                                    __ptext58 13E2  
                                  __ptext59 1608                                _SSP1CON1bits 000F96  
                              _SSP1CON2bits 000F97                                _SSP2CON1bits 000E96  
                      ?_i2c1_driver_sendACK 002D                        __end_of_do_I2C_RESET 151C  
                                _IOCAF1_ISR 1406                                  _IOCAF2_ISR 13E2  
                                _IOCAF3_ISR 13BE                                  _IOCAF4_ISR 139A  
                      ?_i2c1_driver_restart 002D                         __end_of_returnReset 15F4  
                          _i2c1_driver_stop 15F8                               __size_of_main 0064  
                      ?_i2c1_driver_startRX 002D              __size_of_i2c1_driver_getRXData 0004  
             __end_of_i2c1_driver_getRXData 15EC                                    _spi2_isr 000000  
                      __CFG_WDTCWS$WDTCWS_7 000000                                    int$flags 004D  
        __end_of_INTERRUPT_InterruptManager 00B8                  _INTERRUPT_InterruptManager 0008  
                              _SSP1STATbits 000F95            __end_of_do_I2C_SEND_RESTART_READ 15B8  
                              ??_returnStop 002F         __size_of_IOCAF2_SetInterruptHandler 000A  
                     ??_do_I2C_DO_NACK_STOP 002D                           _spi2_exchangeByte 000000  
                                _INTCONbits 000FF2                                  Delay_Xms@i 0060  
                    ??_INTERRUPT_Initialize 003C                               ?_ledBlink_RGB 0064  
                     ??_i2c1_driver_sendACK 002D                          _EXT_INT_Initialize 14B4  
                          ?_do_I2C_TX_EMPTY 002D                      _do_I2C_DO_ADDRESS_NACK 12E2  
                                  intlevel2 0000                       ??_i2c1_driver_restart 002D  
                           ??_TMR2_CallBack 002D                       ??_i2c1_driver_startRX 002D  
                   ?_PIN_MANAGER_Initialize 002D                         ?_EXT_INT_Initialize 002D  
                        __end_of_returnStop 15F8                      __size_of_INT0_CallBack 001E  
    __end_of_IOCAF3_DefaultInterruptHandler 1608     __size_of_IOCAF3_DefaultInterruptHandler 0002  
            _IOCAF3_DefaultInterruptHandler 1606                        ??_EXT_INT_Initialize 003E  
                                _SSP1DATPPS 000EB8            ??_IOCAF1_DefaultInterruptHandler 002D  
           ?_IOCAF1_DefaultInterruptHandler 002D                                  _SSP2DATPPS 000E90  
                                _SSP1CLKPPS 000EB7                                  _SSP2CLKPPS 000E8F  
               ?_IOCAF1_SetInterruptHandler 003C                 ?_IOCAF4_SetInterruptHandler 003C  
                               _returnReset 15F0                              ??_ledBlink_RGB 0041  
                               ?_IOCAF1_ISR 002D                                 ?_IOCAF2_ISR 002D  
                               ?_IOCAF3_ISR 002D                                 ?_IOCAF4_ISR 002D  
            __end_of_PIN_MANAGER_Initialize 1026                 __end_of_i2c_busCollisionISR 15C6  
          ??_IOCAF4_DefaultInterruptHandler 002D             ?_IOCAF4_DefaultInterruptHandler 002D  
                           _PIN_MANAGER_IOC 1376                              _spi2_readBlock 000000  
                     _TMR2_InterruptHandler 004B                       _do_I2C_SEND_ADR_WRITE 14F2  
                      _do_I2C_SEND_ADR_READ 1500                     _IOCAF3_InterruptHandler 0043  
                __end_of_spi1_configuration 0F41  
