

Microchip MPLAB XC8 Assembler V2.05 build -831301201 
                                                                                               Fri Jul 05 23:22:35 2019

Microchip MPLAB XC8 C Compiler v2.05 (Free license) build 20181220022703 Og1 
     1                           	processor	16F15323
     2                           	opt	pw 120
     3                           	opt	flic
     4                           	psect	stringtext1,global,class=STRCODE,delta=2
     5                           	psect	stringtext2,global,class=STRCODE,delta=2
     6                           	psect	stringtext3,global,class=STRCODE,delta=2
     7                           	psect	nvBANK0,global,class=BANK0,space=1,delta=1
     8                           	psect	cinit,global,class=CODE,merge=1,delta=2
     9                           	psect	bssCOMMON,global,class=COMMON,space=1,delta=1
    10                           	psect	bssBANK0,global,class=BANK0,space=1,delta=1
    11                           	psect	cstackCOMMON,global,class=COMMON,space=1,delta=1
    12                           	psect	cstackBANK0,global,class=BANK0,space=1,delta=1
    13                           	psect	maintext,global,class=CODE,merge=1,split=1,delta=2
    14                           	psect	text1,local,class=CODE,merge=1,delta=2
    15                           	psect	text2,local,class=CODE,merge=1,delta=2
    16                           	psect	text3,local,class=CODE,merge=1,delta=2
    17                           	psect	text4,local,class=CODE,merge=1,delta=2
    18                           	psect	text5,local,class=CODE,merge=1,delta=2
    19                           	psect	text6,local,class=CODE,merge=1,delta=2
    20                           	psect	text7,local,class=CODE,merge=1,delta=2
    21                           	psect	text8,local,class=CODE,merge=1,delta=2
    22                           	psect	intentry,global,class=CODE,delta=2
    23                           	psect	text10,local,class=CODE,merge=1,delta=2
    24                           	psect	text11,local,class=CODE,merge=1,delta=2
    25                           	psect	text12,local,class=CODE,merge=1,delta=2
    26                           	psect	text13,local,class=CODE,merge=1,delta=2
    27                           	psect	text14,local,class=CODE,merge=1,delta=2
    28                           	psect	text15,local,class=CODE,merge=1,delta=2
    29                           	psect	text16,local,class=CODE,merge=1,delta=2
    30                           	psect	text17,local,class=CODE,merge=1,delta=2
    31                           	dabs	1,0x7E,2
    32  0000                     
    33                           ; Version 2.05
    34                           ; Generated 20/12/2018 GMT
    35                           ; 
    36                           ; Copyright © 2018, Microchip Technology Inc. and its subsidiaries ("Microchip")
    37                           ; All rights reserved.
    38                           ; 
    39                           ; This software is developed by Microchip Technology Inc. and its subsidiaries ("Microch
      +                          ip").
    40                           ; 
    41                           ; Redistribution and use in source and binary forms, with or without modification, are
    42                           ; permitted provided that the following conditions are met:
    43                           ; 
    44                           ;     1. Redistributions of source code must retain the above copyright notice, this lis
      +                          t of
    45                           ;        conditions and the following disclaimer.
    46                           ; 
    47                           ;     2. Redistributions in binary form must reproduce the above copyright notice, this 
      +                          list
    48                           ;        of conditions and the following disclaimer in the documentation and/or other
    49                           ;        materials provided with the distribution.
    50                           ; 
    51                           ;     3. Microchip's name may not be used to endorse or promote products derived from th
      +                          is
    52                           ;        software without specific prior written permission.
    53                           ; 
    54                           ; THIS SOFTWARE IS PROVIDED BY MICROCHIP "AS IS" AND ANY EXPRESS OR IMPLIED WARRANTIES,
    55                           ; INCLUDING, BUT NOT LIMITED TO, THE IMPLIED WARRANTIES OF MERCHANTABILITY AND FITNESS F
      +                          OR
    56                           ; PURPOSE ARE DISCLAIMED.  IN NO EVENT SHALL MICROCHIP BE LIABLE FOR ANY DIRECT, INDIREC
      +                          T,
    57                           ; INCIDENTAL, SPECIAL, EXEMPLARY, OR CONSEQUENTIAL DAMAGES (INCLUDING BUT NOT LIMITED TO
    58                           ; PROCUREMENT OF SUBSTITUTE GOODS OR SERVICES; LOSS OF USE, DATA OR PROFITS; OR BUSINESS
    59                           ; INTERRUPTION) HOWSOEVER CAUSED AND ON ANY THEORY OF LIABILITY, WHETHER IN CONTRACT, ST
      +                          RICT
    60                           ; LIABILITY, OR TORT (INCLUDING NEGLIGENCE OR OTHERWISE) ARISING IN ANY WAY OUT OF THE U
      +                          SE OF
    61                           ; THIS SOFTWARE, EVEN IF ADVISED OF THE POSSIBILITY OF SUCH DAMAGE.
    62                           ; 
    63                           ; 
    64                           ; Code-generator required, PIC16F15323 Definitions
    65                           ; 
    66                           ; SFR Addresses
    67  0000                     	;# 
    68  0001                     	;# 
    69  0002                     	;# 
    70  0003                     	;# 
    71  0004                     	;# 
    72  0005                     	;# 
    73  0006                     	;# 
    74  0007                     	;# 
    75  0008                     	;# 
    76  0009                     	;# 
    77  000A                     	;# 
    78  000B                     	;# 
    79  000C                     	;# 
    80  000E                     	;# 
    81  0012                     	;# 
    82  0014                     	;# 
    83  0018                     	;# 
    84  001A                     	;# 
    85  009B                     	;# 
    86  009B                     	;# 
    87  009C                     	;# 
    88  009D                     	;# 
    89  009E                     	;# 
    90  009F                     	;# 
    91  0119                     	;# 
    92  0119                     	;# 
    93  0119                     	;# 
    94  011A                     	;# 
    95  011A                     	;# 
    96  011A                     	;# 
    97  011B                     	;# 
    98  011B                     	;# 
    99  011B                     	;# 
   100  011B                     	;# 
   101  011B                     	;# 
   102  011C                     	;# 
   103  011C                     	;# 
   104  011C                     	;# 
   105  011D                     	;# 
   106  011D                     	;# 
   107  011D                     	;# 
   108  011E                     	;# 
   109  011E                     	;# 
   110  011E                     	;# 
   111  011F                     	;# 
   112  011F                     	;# 
   113  011F                     	;# 
   114  011F                     	;# 
   115  011F                     	;# 
   116  018C                     	;# 
   117  018D                     	;# 
   118  018E                     	;# 
   119  018F                     	;# 
   120  0190                     	;# 
   121  0191                     	;# 
   122  0192                     	;# 
   123  020C                     	;# 
   124  020C                     	;# 
   125  020D                     	;# 
   126  020E                     	;# 
   127  020F                     	;# 
   128  020F                     	;# 
   129  0210                     	;# 
   130  0210                     	;# 
   131  0211                     	;# 
   132  0211                     	;# 
   133  028C                     	;# 
   134  028C                     	;# 
   135  028D                     	;# 
   136  028D                     	;# 
   137  028E                     	;# 
   138  028F                     	;# 
   139  0290                     	;# 
   140  0291                     	;# 
   141  030C                     	;# 
   142  030C                     	;# 
   143  030D                     	;# 
   144  030E                     	;# 
   145  030F                     	;# 
   146  0310                     	;# 
   147  0310                     	;# 
   148  0311                     	;# 
   149  0312                     	;# 
   150  0313                     	;# 
   151  0314                     	;# 
   152  0314                     	;# 
   153  0315                     	;# 
   154  0316                     	;# 
   155  0318                     	;# 
   156  0318                     	;# 
   157  0319                     	;# 
   158  031A                     	;# 
   159  031C                     	;# 
   160  031C                     	;# 
   161  031D                     	;# 
   162  031E                     	;# 
   163  038C                     	;# 
   164  038C                     	;# 
   165  038D                     	;# 
   166  038E                     	;# 
   167  058C                     	;# 
   168  058C                     	;# 
   169  058D                     	;# 
   170  058E                     	;# 
   171  058F                     	;# 
   172  058F                     	;# 
   173  0590                     	;# 
   174  0591                     	;# 
   175  0592                     	;# 
   176  0593                     	;# 
   177  059C                     	;# 
   178  059C                     	;# 
   179  059D                     	;# 
   180  059D                     	;# 
   181  059E                     	;# 
   182  059F                     	;# 
   183  060C                     	;# 
   184  060D                     	;# 
   185  060E                     	;# 
   186  060F                     	;# 
   187  0610                     	;# 
   188  0611                     	;# 
   189  0612                     	;# 
   190  0613                     	;# 
   191  0614                     	;# 
   192  070C                     	;# 
   193  070D                     	;# 
   194  070E                     	;# 
   195  070F                     	;# 
   196  0710                     	;# 
   197  0711                     	;# 
   198  0712                     	;# 
   199  0713                     	;# 
   200  0716                     	;# 
   201  0717                     	;# 
   202  0718                     	;# 
   203  0719                     	;# 
   204  071A                     	;# 
   205  071B                     	;# 
   206  071C                     	;# 
   207  071D                     	;# 
   208  0796                     	;# 
   209  0797                     	;# 
   210  0798                     	;# 
   211  0799                     	;# 
   212  079A                     	;# 
   213  079B                     	;# 
   214  080C                     	;# 
   215  080D                     	;# 
   216  080E                     	;# 
   217  080F                     	;# 
   218  0810                     	;# 
   219  0811                     	;# 
   220  0812                     	;# 
   221  0813                     	;# 
   222  0814                     	;# 
   223  081A                     	;# 
   224  081A                     	;# 
   225  081B                     	;# 
   226  081C                     	;# 
   227  081C                     	;# 
   228  081D                     	;# 
   229  081E                     	;# 
   230  081F                     	;# 
   231  088C                     	;# 
   232  088D                     	;# 
   233  088E                     	;# 
   234  088F                     	;# 
   235  0890                     	;# 
   236  0891                     	;# 
   237  0892                     	;# 
   238  0893                     	;# 
   239  0895                     	;# 
   240  0896                     	;# 
   241  090C                     	;# 
   242  090E                     	;# 
   243  090F                     	;# 
   244  091F                     	;# 
   245  098F                     	;# 
   246  098F                     	;# 
   247  0990                     	;# 
   248  0991                     	;# 
   249  0992                     	;# 
   250  0993                     	;# 
   251  0994                     	;# 
   252  0995                     	;# 
   253  0996                     	;# 
   254  0997                     	;# 
   255  1E0F                     	;# 
   256  1E10                     	;# 
   257  1E11                     	;# 
   258  1E12                     	;# 
   259  1E13                     	;# 
   260  1E14                     	;# 
   261  1E15                     	;# 
   262  1E16                     	;# 
   263  1E17                     	;# 
   264  1E18                     	;# 
   265  1E19                     	;# 
   266  1E1A                     	;# 
   267  1E1B                     	;# 
   268  1E1C                     	;# 
   269  1E1D                     	;# 
   270  1E1E                     	;# 
   271  1E1F                     	;# 
   272  1E20                     	;# 
   273  1E21                     	;# 
   274  1E22                     	;# 
   275  1E23                     	;# 
   276  1E24                     	;# 
   277  1E25                     	;# 
   278  1E26                     	;# 
   279  1E27                     	;# 
   280  1E28                     	;# 
   281  1E29                     	;# 
   282  1E2A                     	;# 
   283  1E2B                     	;# 
   284  1E2C                     	;# 
   285  1E2D                     	;# 
   286  1E2E                     	;# 
   287  1E2F                     	;# 
   288  1E30                     	;# 
   289  1E31                     	;# 
   290  1E32                     	;# 
   291  1E33                     	;# 
   292  1E34                     	;# 
   293  1E35                     	;# 
   294  1E36                     	;# 
   295  1E37                     	;# 
   296  1E8F                     	;# 
   297  1E90                     	;# 
   298  1E91                     	;# 
   299  1E92                     	;# 
   300  1E93                     	;# 
   301  1E9C                     	;# 
   302  1EA1                     	;# 
   303  1EA2                     	;# 
   304  1EB1                     	;# 
   305  1EBB                     	;# 
   306  1EBC                     	;# 
   307  1EBD                     	;# 
   308  1EBE                     	;# 
   309  1EC3                     	;# 
   310  1EC5                     	;# 
   311  1EC6                     	;# 
   312  1EC7                     	;# 
   313  1ECB                     	;# 
   314  1ECC                     	;# 
   315  1F10                     	;# 
   316  1F11                     	;# 
   317  1F12                     	;# 
   318  1F13                     	;# 
   319  1F14                     	;# 
   320  1F15                     	;# 
   321  1F20                     	;# 
   322  1F21                     	;# 
   323  1F22                     	;# 
   324  1F23                     	;# 
   325  1F24                     	;# 
   326  1F25                     	;# 
   327  1F38                     	;# 
   328  1F39                     	;# 
   329  1F3A                     	;# 
   330  1F3B                     	;# 
   331  1F3C                     	;# 
   332  1F3D                     	;# 
   333  1F3E                     	;# 
   334  1F3F                     	;# 
   335  1F4E                     	;# 
   336  1F4F                     	;# 
   337  1F50                     	;# 
   338  1F51                     	;# 
   339  1F52                     	;# 
   340  1F53                     	;# 
   341  1F54                     	;# 
   342  1F55                     	;# 
   343  1FE4                     	;# 
   344  1FE5                     	;# 
   345  1FE6                     	;# 
   346  1FE7                     	;# 
   347  1FE8                     	;# 
   348  1FE8                     	;# 
   349  1FE9                     	;# 
   350  1FEA                     	;# 
   351  1FEA                     	;# 
   352  1FEB                     	;# 
   353  1FED                     	;# 
   354  1FEE                     	;# 
   355  1FEF                     	;# 
   356  0000                     	;# 
   357  0001                     	;# 
   358  0002                     	;# 
   359  0003                     	;# 
   360  0004                     	;# 
   361  0005                     	;# 
   362  0006                     	;# 
   363  0007                     	;# 
   364  0008                     	;# 
   365  0009                     	;# 
   366  000A                     	;# 
   367  000B                     	;# 
   368  000C                     	;# 
   369  000E                     	;# 
   370  0012                     	;# 
   371  0014                     	;# 
   372  0018                     	;# 
   373  001A                     	;# 
   374  009B                     	;# 
   375  009B                     	;# 
   376  009C                     	;# 
   377  009D                     	;# 
   378  009E                     	;# 
   379  009F                     	;# 
   380  0119                     	;# 
   381  0119                     	;# 
   382  0119                     	;# 
   383  011A                     	;# 
   384  011A                     	;# 
   385  011A                     	;# 
   386  011B                     	;# 
   387  011B                     	;# 
   388  011B                     	;# 
   389  011B                     	;# 
   390  011B                     	;# 
   391  011C                     	;# 
   392  011C                     	;# 
   393  011C                     	;# 
   394  011D                     	;# 
   395  011D                     	;# 
   396  011D                     	;# 
   397  011E                     	;# 
   398  011E                     	;# 
   399  011E                     	;# 
   400  011F                     	;# 
   401  011F                     	;# 
   402  011F                     	;# 
   403  011F                     	;# 
   404  011F                     	;# 
   405  018C                     	;# 
   406  018D                     	;# 
   407  018E                     	;# 
   408  018F                     	;# 
   409  0190                     	;# 
   410  0191                     	;# 
   411  0192                     	;# 
   412  020C                     	;# 
   413  020C                     	;# 
   414  020D                     	;# 
   415  020E                     	;# 
   416  020F                     	;# 
   417  020F                     	;# 
   418  0210                     	;# 
   419  0210                     	;# 
   420  0211                     	;# 
   421  0211                     	;# 
   422  028C                     	;# 
   423  028C                     	;# 
   424  028D                     	;# 
   425  028D                     	;# 
   426  028E                     	;# 
   427  028F                     	;# 
   428  0290                     	;# 
   429  0291                     	;# 
   430  030C                     	;# 
   431  030C                     	;# 
   432  030D                     	;# 
   433  030E                     	;# 
   434  030F                     	;# 
   435  0310                     	;# 
   436  0310                     	;# 
   437  0311                     	;# 
   438  0312                     	;# 
   439  0313                     	;# 
   440  0314                     	;# 
   441  0314                     	;# 
   442  0315                     	;# 
   443  0316                     	;# 
   444  0318                     	;# 
   445  0318                     	;# 
   446  0319                     	;# 
   447  031A                     	;# 
   448  031C                     	;# 
   449  031C                     	;# 
   450  031D                     	;# 
   451  031E                     	;# 
   452  038C                     	;# 
   453  038C                     	;# 
   454  038D                     	;# 
   455  038E                     	;# 
   456  058C                     	;# 
   457  058C                     	;# 
   458  058D                     	;# 
   459  058E                     	;# 
   460  058F                     	;# 
   461  058F                     	;# 
   462  0590                     	;# 
   463  0591                     	;# 
   464  0592                     	;# 
   465  0593                     	;# 
   466  059C                     	;# 
   467  059C                     	;# 
   468  059D                     	;# 
   469  059D                     	;# 
   470  059E                     	;# 
   471  059F                     	;# 
   472  060C                     	;# 
   473  060D                     	;# 
   474  060E                     	;# 
   475  060F                     	;# 
   476  0610                     	;# 
   477  0611                     	;# 
   478  0612                     	;# 
   479  0613                     	;# 
   480  0614                     	;# 
   481  070C                     	;# 
   482  070D                     	;# 
   483  070E                     	;# 
   484  070F                     	;# 
   485  0710                     	;# 
   486  0711                     	;# 
   487  0712                     	;# 
   488  0713                     	;# 
   489  0716                     	;# 
   490  0717                     	;# 
   491  0718                     	;# 
   492  0719                     	;# 
   493  071A                     	;# 
   494  071B                     	;# 
   495  071C                     	;# 
   496  071D                     	;# 
   497  0796                     	;# 
   498  0797                     	;# 
   499  0798                     	;# 
   500  0799                     	;# 
   501  079A                     	;# 
   502  079B                     	;# 
   503  080C                     	;# 
   504  080D                     	;# 
   505  080E                     	;# 
   506  080F                     	;# 
   507  0810                     	;# 
   508  0811                     	;# 
   509  0812                     	;# 
   510  0813                     	;# 
   511  0814                     	;# 
   512  081A                     	;# 
   513  081A                     	;# 
   514  081B                     	;# 
   515  081C                     	;# 
   516  081C                     	;# 
   517  081D                     	;# 
   518  081E                     	;# 
   519  081F                     	;# 
   520  088C                     	;# 
   521  088D                     	;# 
   522  088E                     	;# 
   523  088F                     	;# 
   524  0890                     	;# 
   525  0891                     	;# 
   526  0892                     	;# 
   527  0893                     	;# 
   528  0895                     	;# 
   529  0896                     	;# 
   530  090C                     	;# 
   531  090E                     	;# 
   532  090F                     	;# 
   533  091F                     	;# 
   534  098F                     	;# 
   535  098F                     	;# 
   536  0990                     	;# 
   537  0991                     	;# 
   538  0992                     	;# 
   539  0993                     	;# 
   540  0994                     	;# 
   541  0995                     	;# 
   542  0996                     	;# 
   543  0997                     	;# 
   544  1E0F                     	;# 
   545  1E10                     	;# 
   546  1E11                     	;# 
   547  1E12                     	;# 
   548  1E13                     	;# 
   549  1E14                     	;# 
   550  1E15                     	;# 
   551  1E16                     	;# 
   552  1E17                     	;# 
   553  1E18                     	;# 
   554  1E19                     	;# 
   555  1E1A                     	;# 
   556  1E1B                     	;# 
   557  1E1C                     	;# 
   558  1E1D                     	;# 
   559  1E1E                     	;# 
   560  1E1F                     	;# 
   561  1E20                     	;# 
   562  1E21                     	;# 
   563  1E22                     	;# 
   564  1E23                     	;# 
   565  1E24                     	;# 
   566  1E25                     	;# 
   567  1E26                     	;# 
   568  1E27                     	;# 
   569  1E28                     	;# 
   570  1E29                     	;# 
   571  1E2A                     	;# 
   572  1E2B                     	;# 
   573  1E2C                     	;# 
   574  1E2D                     	;# 
   575  1E2E                     	;# 
   576  1E2F                     	;# 
   577  1E30                     	;# 
   578  1E31                     	;# 
   579  1E32                     	;# 
   580  1E33                     	;# 
   581  1E34                     	;# 
   582  1E35                     	;# 
   583  1E36                     	;# 
   584  1E37                     	;# 
   585  1E8F                     	;# 
   586  1E90                     	;# 
   587  1E91                     	;# 
   588  1E92                     	;# 
   589  1E93                     	;# 
   590  1E9C                     	;# 
   591  1EA1                     	;# 
   592  1EA2                     	;# 
   593  1EB1                     	;# 
   594  1EBB                     	;# 
   595  1EBC                     	;# 
   596  1EBD                     	;# 
   597  1EBE                     	;# 
   598  1EC3                     	;# 
   599  1EC5                     	;# 
   600  1EC6                     	;# 
   601  1EC7                     	;# 
   602  1ECB                     	;# 
   603  1ECC                     	;# 
   604  1F10                     	;# 
   605  1F11                     	;# 
   606  1F12                     	;# 
   607  1F13                     	;# 
   608  1F14                     	;# 
   609  1F15                     	;# 
   610  1F20                     	;# 
   611  1F21                     	;# 
   612  1F22                     	;# 
   613  1F23                     	;# 
   614  1F24                     	;# 
   615  1F25                     	;# 
   616  1F38                     	;# 
   617  1F39                     	;# 
   618  1F3A                     	;# 
   619  1F3B                     	;# 
   620  1F3C                     	;# 
   621  1F3D                     	;# 
   622  1F3E                     	;# 
   623  1F3F                     	;# 
   624  1F4E                     	;# 
   625  1F4F                     	;# 
   626  1F50                     	;# 
   627  1F51                     	;# 
   628  1F52                     	;# 
   629  1F53                     	;# 
   630  1F54                     	;# 
   631  1F55                     	;# 
   632  1FE4                     	;# 
   633  1FE5                     	;# 
   634  1FE6                     	;# 
   635  1FE7                     	;# 
   636  1FE8                     	;# 
   637  1FE8                     	;# 
   638  1FE9                     	;# 
   639  1FEA                     	;# 
   640  1FEA                     	;# 
   641  1FEB                     	;# 
   642  1FED                     	;# 
   643  1FEE                     	;# 
   644  1FEF                     	;# 
   645  0000                     	;# 
   646  0001                     	;# 
   647  0002                     	;# 
   648  0003                     	;# 
   649  0004                     	;# 
   650  0005                     	;# 
   651  0006                     	;# 
   652  0007                     	;# 
   653  0008                     	;# 
   654  0009                     	;# 
   655  000A                     	;# 
   656  000B                     	;# 
   657  000C                     	;# 
   658  000E                     	;# 
   659  0012                     	;# 
   660  0014                     	;# 
   661  0018                     	;# 
   662  001A                     	;# 
   663  009B                     	;# 
   664  009B                     	;# 
   665  009C                     	;# 
   666  009D                     	;# 
   667  009E                     	;# 
   668  009F                     	;# 
   669  0119                     	;# 
   670  0119                     	;# 
   671  0119                     	;# 
   672  011A                     	;# 
   673  011A                     	;# 
   674  011A                     	;# 
   675  011B                     	;# 
   676  011B                     	;# 
   677  011B                     	;# 
   678  011B                     	;# 
   679  011B                     	;# 
   680  011C                     	;# 
   681  011C                     	;# 
   682  011C                     	;# 
   683  011D                     	;# 
   684  011D                     	;# 
   685  011D                     	;# 
   686  011E                     	;# 
   687  011E                     	;# 
   688  011E                     	;# 
   689  011F                     	;# 
   690  011F                     	;# 
   691  011F                     	;# 
   692  011F                     	;# 
   693  011F                     	;# 
   694  018C                     	;# 
   695  018D                     	;# 
   696  018E                     	;# 
   697  018F                     	;# 
   698  0190                     	;# 
   699  0191                     	;# 
   700  0192                     	;# 
   701  020C                     	;# 
   702  020C                     	;# 
   703  020D                     	;# 
   704  020E                     	;# 
   705  020F                     	;# 
   706  020F                     	;# 
   707  0210                     	;# 
   708  0210                     	;# 
   709  0211                     	;# 
   710  0211                     	;# 
   711  028C                     	;# 
   712  028C                     	;# 
   713  028D                     	;# 
   714  028D                     	;# 
   715  028E                     	;# 
   716  028F                     	;# 
   717  0290                     	;# 
   718  0291                     	;# 
   719  030C                     	;# 
   720  030C                     	;# 
   721  030D                     	;# 
   722  030E                     	;# 
   723  030F                     	;# 
   724  0310                     	;# 
   725  0310                     	;# 
   726  0311                     	;# 
   727  0312                     	;# 
   728  0313                     	;# 
   729  0314                     	;# 
   730  0314                     	;# 
   731  0315                     	;# 
   732  0316                     	;# 
   733  0318                     	;# 
   734  0318                     	;# 
   735  0319                     	;# 
   736  031A                     	;# 
   737  031C                     	;# 
   738  031C                     	;# 
   739  031D                     	;# 
   740  031E                     	;# 
   741  038C                     	;# 
   742  038C                     	;# 
   743  038D                     	;# 
   744  038E                     	;# 
   745  058C                     	;# 
   746  058C                     	;# 
   747  058D                     	;# 
   748  058E                     	;# 
   749  058F                     	;# 
   750  058F                     	;# 
   751  0590                     	;# 
   752  0591                     	;# 
   753  0592                     	;# 
   754  0593                     	;# 
   755  059C                     	;# 
   756  059C                     	;# 
   757  059D                     	;# 
   758  059D                     	;# 
   759  059E                     	;# 
   760  059F                     	;# 
   761  060C                     	;# 
   762  060D                     	;# 
   763  060E                     	;# 
   764  060F                     	;# 
   765  0610                     	;# 
   766  0611                     	;# 
   767  0612                     	;# 
   768  0613                     	;# 
   769  0614                     	;# 
   770  070C                     	;# 
   771  070D                     	;# 
   772  070E                     	;# 
   773  070F                     	;# 
   774  0710                     	;# 
   775  0711                     	;# 
   776  0712                     	;# 
   777  0713                     	;# 
   778  0716                     	;# 
   779  0717                     	;# 
   780  0718                     	;# 
   781  0719                     	;# 
   782  071A                     	;# 
   783  071B                     	;# 
   784  071C                     	;# 
   785  071D                     	;# 
   786  0796                     	;# 
   787  0797                     	;# 
   788  0798                     	;# 
   789  0799                     	;# 
   790  079A                     	;# 
   791  079B                     	;# 
   792  080C                     	;# 
   793  080D                     	;# 
   794  080E                     	;# 
   795  080F                     	;# 
   796  0810                     	;# 
   797  0811                     	;# 
   798  0812                     	;# 
   799  0813                     	;# 
   800  0814                     	;# 
   801  081A                     	;# 
   802  081A                     	;# 
   803  081B                     	;# 
   804  081C                     	;# 
   805  081C                     	;# 
   806  081D                     	;# 
   807  081E                     	;# 
   808  081F                     	;# 
   809  088C                     	;# 
   810  088D                     	;# 
   811  088E                     	;# 
   812  088F                     	;# 
   813  0890                     	;# 
   814  0891                     	;# 
   815  0892                     	;# 
   816  0893                     	;# 
   817  0895                     	;# 
   818  0896                     	;# 
   819  090C                     	;# 
   820  090E                     	;# 
   821  090F                     	;# 
   822  091F                     	;# 
   823  098F                     	;# 
   824  098F                     	;# 
   825  0990                     	;# 
   826  0991                     	;# 
   827  0992                     	;# 
   828  0993                     	;# 
   829  0994                     	;# 
   830  0995                     	;# 
   831  0996                     	;# 
   832  0997                     	;# 
   833  1E0F                     	;# 
   834  1E10                     	;# 
   835  1E11                     	;# 
   836  1E12                     	;# 
   837  1E13                     	;# 
   838  1E14                     	;# 
   839  1E15                     	;# 
   840  1E16                     	;# 
   841  1E17                     	;# 
   842  1E18                     	;# 
   843  1E19                     	;# 
   844  1E1A                     	;# 
   845  1E1B                     	;# 
   846  1E1C                     	;# 
   847  1E1D                     	;# 
   848  1E1E                     	;# 
   849  1E1F                     	;# 
   850  1E20                     	;# 
   851  1E21                     	;# 
   852  1E22                     	;# 
   853  1E23                     	;# 
   854  1E24                     	;# 
   855  1E25                     	;# 
   856  1E26                     	;# 
   857  1E27                     	;# 
   858  1E28                     	;# 
   859  1E29                     	;# 
   860  1E2A                     	;# 
   861  1E2B                     	;# 
   862  1E2C                     	;# 
   863  1E2D                     	;# 
   864  1E2E                     	;# 
   865  1E2F                     	;# 
   866  1E30                     	;# 
   867  1E31                     	;# 
   868  1E32                     	;# 
   869  1E33                     	;# 
   870  1E34                     	;# 
   871  1E35                     	;# 
   872  1E36                     	;# 
   873  1E37                     	;# 
   874  1E8F                     	;# 
   875  1E90                     	;# 
   876  1E91                     	;# 
   877  1E92                     	;# 
   878  1E93                     	;# 
   879  1E9C                     	;# 
   880  1EA1                     	;# 
   881  1EA2                     	;# 
   882  1EB1                     	;# 
   883  1EBB                     	;# 
   884  1EBC                     	;# 
   885  1EBD                     	;# 
   886  1EBE                     	;# 
   887  1EC3                     	;# 
   888  1EC5                     	;# 
   889  1EC6                     	;# 
   890  1EC7                     	;# 
   891  1ECB                     	;# 
   892  1ECC                     	;# 
   893  1F10                     	;# 
   894  1F11                     	;# 
   895  1F12                     	;# 
   896  1F13                     	;# 
   897  1F14                     	;# 
   898  1F15                     	;# 
   899  1F20                     	;# 
   900  1F21                     	;# 
   901  1F22                     	;# 
   902  1F23                     	;# 
   903  1F24                     	;# 
   904  1F25                     	;# 
   905  1F38                     	;# 
   906  1F39                     	;# 
   907  1F3A                     	;# 
   908  1F3B                     	;# 
   909  1F3C                     	;# 
   910  1F3D                     	;# 
   911  1F3E                     	;# 
   912  1F3F                     	;# 
   913  1F4E                     	;# 
   914  1F4F                     	;# 
   915  1F50                     	;# 
   916  1F51                     	;# 
   917  1F52                     	;# 
   918  1F53                     	;# 
   919  1F54                     	;# 
   920  1F55                     	;# 
   921  1FE4                     	;# 
   922  1FE5                     	;# 
   923  1FE6                     	;# 
   924  1FE7                     	;# 
   925  1FE8                     	;# 
   926  1FE8                     	;# 
   927  1FE9                     	;# 
   928  1FEA                     	;# 
   929  1FEA                     	;# 
   930  1FEB                     	;# 
   931  1FED                     	;# 
   932  1FEE                     	;# 
   933  1FEF                     	;# 
   934  0000                     	;# 
   935  0001                     	;# 
   936  0002                     	;# 
   937  0003                     	;# 
   938  0004                     	;# 
   939  0005                     	;# 
   940  0006                     	;# 
   941  0007                     	;# 
   942  0008                     	;# 
   943  0009                     	;# 
   944  000A                     	;# 
   945  000B                     	;# 
   946  000C                     	;# 
   947  000E                     	;# 
   948  0012                     	;# 
   949  0014                     	;# 
   950  0018                     	;# 
   951  001A                     	;# 
   952  009B                     	;# 
   953  009B                     	;# 
   954  009C                     	;# 
   955  009D                     	;# 
   956  009E                     	;# 
   957  009F                     	;# 
   958  0119                     	;# 
   959  0119                     	;# 
   960  0119                     	;# 
   961  011A                     	;# 
   962  011A                     	;# 
   963  011A                     	;# 
   964  011B                     	;# 
   965  011B                     	;# 
   966  011B                     	;# 
   967  011B                     	;# 
   968  011B                     	;# 
   969  011C                     	;# 
   970  011C                     	;# 
   971  011C                     	;# 
   972  011D                     	;# 
   973  011D                     	;# 
   974  011D                     	;# 
   975  011E                     	;# 
   976  011E                     	;# 
   977  011E                     	;# 
   978  011F                     	;# 
   979  011F                     	;# 
   980  011F                     	;# 
   981  011F                     	;# 
   982  011F                     	;# 
   983  018C                     	;# 
   984  018D                     	;# 
   985  018E                     	;# 
   986  018F                     	;# 
   987  0190                     	;# 
   988  0191                     	;# 
   989  0192                     	;# 
   990  020C                     	;# 
   991  020C                     	;# 
   992  020D                     	;# 
   993  020E                     	;# 
   994  020F                     	;# 
   995  020F                     	;# 
   996  0210                     	;# 
   997  0210                     	;# 
   998  0211                     	;# 
   999  0211                     	;# 
  1000  028C                     	;# 
  1001  028C                     	;# 
  1002  028D                     	;# 
  1003  028D                     	;# 
  1004  028E                     	;# 
  1005  028F                     	;# 
  1006  0290                     	;# 
  1007  0291                     	;# 
  1008  030C                     	;# 
  1009  030C                     	;# 
  1010  030D                     	;# 
  1011  030E                     	;# 
  1012  030F                     	;# 
  1013  0310                     	;# 
  1014  0310                     	;# 
  1015  0311                     	;# 
  1016  0312                     	;# 
  1017  0313                     	;# 
  1018  0314                     	;# 
  1019  0314                     	;# 
  1020  0315                     	;# 
  1021  0316                     	;# 
  1022  0318                     	;# 
  1023  0318                     	;# 
  1024  0319                     	;# 
  1025  031A                     	;# 
  1026  031C                     	;# 
  1027  031C                     	;# 
  1028  031D                     	;# 
  1029  031E                     	;# 
  1030  038C                     	;# 
  1031  038C                     	;# 
  1032  038D                     	;# 
  1033  038E                     	;# 
  1034  058C                     	;# 
  1035  058C                     	;# 
  1036  058D                     	;# 
  1037  058E                     	;# 
  1038  058F                     	;# 
  1039  058F                     	;# 
  1040  0590                     	;# 
  1041  0591                     	;# 
  1042  0592                     	;# 
  1043  0593                     	;# 
  1044  059C                     	;# 
  1045  059C                     	;# 
  1046  059D                     	;# 
  1047  059D                     	;# 
  1048  059E                     	;# 
  1049  059F                     	;# 
  1050  060C                     	;# 
  1051  060D                     	;# 
  1052  060E                     	;# 
  1053  060F                     	;# 
  1054  0610                     	;# 
  1055  0611                     	;# 
  1056  0612                     	;# 
  1057  0613                     	;# 
  1058  0614                     	;# 
  1059  070C                     	;# 
  1060  070D                     	;# 
  1061  070E                     	;# 
  1062  070F                     	;# 
  1063  0710                     	;# 
  1064  0711                     	;# 
  1065  0712                     	;# 
  1066  0713                     	;# 
  1067  0716                     	;# 
  1068  0717                     	;# 
  1069  0718                     	;# 
  1070  0719                     	;# 
  1071  071A                     	;# 
  1072  071B                     	;# 
  1073  071C                     	;# 
  1074  071D                     	;# 
  1075  0796                     	;# 
  1076  0797                     	;# 
  1077  0798                     	;# 
  1078  0799                     	;# 
  1079  079A                     	;# 
  1080  079B                     	;# 
  1081  080C                     	;# 
  1082  080D                     	;# 
  1083  080E                     	;# 
  1084  080F                     	;# 
  1085  0810                     	;# 
  1086  0811                     	;# 
  1087  0812                     	;# 
  1088  0813                     	;# 
  1089  0814                     	;# 
  1090  081A                     	;# 
  1091  081A                     	;# 
  1092  081B                     	;# 
  1093  081C                     	;# 
  1094  081C                     	;# 
  1095  081D                     	;# 
  1096  081E                     	;# 
  1097  081F                     	;# 
  1098  088C                     	;# 
  1099  088D                     	;# 
  1100  088E                     	;# 
  1101  088F                     	;# 
  1102  0890                     	;# 
  1103  0891                     	;# 
  1104  0892                     	;# 
  1105  0893                     	;# 
  1106  0895                     	;# 
  1107  0896                     	;# 
  1108  090C                     	;# 
  1109  090E                     	;# 
  1110  090F                     	;# 
  1111  091F                     	;# 
  1112  098F                     	;# 
  1113  098F                     	;# 
  1114  0990                     	;# 
  1115  0991                     	;# 
  1116  0992                     	;# 
  1117  0993                     	;# 
  1118  0994                     	;# 
  1119  0995                     	;# 
  1120  0996                     	;# 
  1121  0997                     	;# 
  1122  1E0F                     	;# 
  1123  1E10                     	;# 
  1124  1E11                     	;# 
  1125  1E12                     	;# 
  1126  1E13                     	;# 
  1127  1E14                     	;# 
  1128  1E15                     	;# 
  1129  1E16                     	;# 
  1130  1E17                     	;# 
  1131  1E18                     	;# 
  1132  1E19                     	;# 
  1133  1E1A                     	;# 
  1134  1E1B                     	;# 
  1135  1E1C                     	;# 
  1136  1E1D                     	;# 
  1137  1E1E                     	;# 
  1138  1E1F                     	;# 
  1139  1E20                     	;# 
  1140  1E21                     	;# 
  1141  1E22                     	;# 
  1142  1E23                     	;# 
  1143  1E24                     	;# 
  1144  1E25                     	;# 
  1145  1E26                     	;# 
  1146  1E27                     	;# 
  1147  1E28                     	;# 
  1148  1E29                     	;# 
  1149  1E2A                     	;# 
  1150  1E2B                     	;# 
  1151  1E2C                     	;# 
  1152  1E2D                     	;# 
  1153  1E2E                     	;# 
  1154  1E2F                     	;# 
  1155  1E30                     	;# 
  1156  1E31                     	;# 
  1157  1E32                     	;# 
  1158  1E33                     	;# 
  1159  1E34                     	;# 
  1160  1E35                     	;# 
  1161  1E36                     	;# 
  1162  1E37                     	;# 
  1163  1E8F                     	;# 
  1164  1E90                     	;# 
  1165  1E91                     	;# 
  1166  1E92                     	;# 
  1167  1E93                     	;# 
  1168  1E9C                     	;# 
  1169  1EA1                     	;# 
  1170  1EA2                     	;# 
  1171  1EB1                     	;# 
  1172  1EBB                     	;# 
  1173  1EBC                     	;# 
  1174  1EBD                     	;# 
  1175  1EBE                     	;# 
  1176  1EC3                     	;# 
  1177  1EC5                     	;# 
  1178  1EC6                     	;# 
  1179  1EC7                     	;# 
  1180  1ECB                     	;# 
  1181  1ECC                     	;# 
  1182  1F10                     	;# 
  1183  1F11                     	;# 
  1184  1F12                     	;# 
  1185  1F13                     	;# 
  1186  1F14                     	;# 
  1187  1F15                     	;# 
  1188  1F20                     	;# 
  1189  1F21                     	;# 
  1190  1F22                     	;# 
  1191  1F23                     	;# 
  1192  1F24                     	;# 
  1193  1F25                     	;# 
  1194  1F38                     	;# 
  1195  1F39                     	;# 
  1196  1F3A                     	;# 
  1197  1F3B                     	;# 
  1198  1F3C                     	;# 
  1199  1F3D                     	;# 
  1200  1F3E                     	;# 
  1201  1F3F                     	;# 
  1202  1F4E                     	;# 
  1203  1F4F                     	;# 
  1204  1F50                     	;# 
  1205  1F51                     	;# 
  1206  1F52                     	;# 
  1207  1F53                     	;# 
  1208  1F54                     	;# 
  1209  1F55                     	;# 
  1210  1FE4                     	;# 
  1211  1FE5                     	;# 
  1212  1FE6                     	;# 
  1213  1FE7                     	;# 
  1214  1FE8                     	;# 
  1215  1FE8                     	;# 
  1216  1FE9                     	;# 
  1217  1FEA                     	;# 
  1218  1FEA                     	;# 
  1219  1FEB                     	;# 
  1220  1FED                     	;# 
  1221  1FEE                     	;# 
  1222  1FEF                     	;# 
  1223  0000                     	;# 
  1224  0001                     	;# 
  1225  0002                     	;# 
  1226  0003                     	;# 
  1227  0004                     	;# 
  1228  0005                     	;# 
  1229  0006                     	;# 
  1230  0007                     	;# 
  1231  0008                     	;# 
  1232  0009                     	;# 
  1233  000A                     	;# 
  1234  000B                     	;# 
  1235  000C                     	;# 
  1236  000E                     	;# 
  1237  0012                     	;# 
  1238  0014                     	;# 
  1239  0018                     	;# 
  1240  001A                     	;# 
  1241  009B                     	;# 
  1242  009B                     	;# 
  1243  009C                     	;# 
  1244  009D                     	;# 
  1245  009E                     	;# 
  1246  009F                     	;# 
  1247  0119                     	;# 
  1248  0119                     	;# 
  1249  0119                     	;# 
  1250  011A                     	;# 
  1251  011A                     	;# 
  1252  011A                     	;# 
  1253  011B                     	;# 
  1254  011B                     	;# 
  1255  011B                     	;# 
  1256  011B                     	;# 
  1257  011B                     	;# 
  1258  011C                     	;# 
  1259  011C                     	;# 
  1260  011C                     	;# 
  1261  011D                     	;# 
  1262  011D                     	;# 
  1263  011D                     	;# 
  1264  011E                     	;# 
  1265  011E                     	;# 
  1266  011E                     	;# 
  1267  011F                     	;# 
  1268  011F                     	;# 
  1269  011F                     	;# 
  1270  011F                     	;# 
  1271  011F                     	;# 
  1272  018C                     	;# 
  1273  018D                     	;# 
  1274  018E                     	;# 
  1275  018F                     	;# 
  1276  0190                     	;# 
  1277  0191                     	;# 
  1278  0192                     	;# 
  1279  020C                     	;# 
  1280  020C                     	;# 
  1281  020D                     	;# 
  1282  020E                     	;# 
  1283  020F                     	;# 
  1284  020F                     	;# 
  1285  0210                     	;# 
  1286  0210                     	;# 
  1287  0211                     	;# 
  1288  0211                     	;# 
  1289  028C                     	;# 
  1290  028C                     	;# 
  1291  028D                     	;# 
  1292  028D                     	;# 
  1293  028E                     	;# 
  1294  028F                     	;# 
  1295  0290                     	;# 
  1296  0291                     	;# 
  1297  030C                     	;# 
  1298  030C                     	;# 
  1299  030D                     	;# 
  1300  030E                     	;# 
  1301  030F                     	;# 
  1302  0310                     	;# 
  1303  0310                     	;# 
  1304  0311                     	;# 
  1305  0312                     	;# 
  1306  0313                     	;# 
  1307  0314                     	;# 
  1308  0314                     	;# 
  1309  0315                     	;# 
  1310  0316                     	;# 
  1311  0318                     	;# 
  1312  0318                     	;# 
  1313  0319                     	;# 
  1314  031A                     	;# 
  1315  031C                     	;# 
  1316  031C                     	;# 
  1317  031D                     	;# 
  1318  031E                     	;# 
  1319  038C                     	;# 
  1320  038C                     	;# 
  1321  038D                     	;# 
  1322  038E                     	;# 
  1323  058C                     	;# 
  1324  058C                     	;# 
  1325  058D                     	;# 
  1326  058E                     	;# 
  1327  058F                     	;# 
  1328  058F                     	;# 
  1329  0590                     	;# 
  1330  0591                     	;# 
  1331  0592                     	;# 
  1332  0593                     	;# 
  1333  059C                     	;# 
  1334  059C                     	;# 
  1335  059D                     	;# 
  1336  059D                     	;# 
  1337  059E                     	;# 
  1338  059F                     	;# 
  1339  060C                     	;# 
  1340  060D                     	;# 
  1341  060E                     	;# 
  1342  060F                     	;# 
  1343  0610                     	;# 
  1344  0611                     	;# 
  1345  0612                     	;# 
  1346  0613                     	;# 
  1347  0614                     	;# 
  1348  070C                     	;# 
  1349  070D                     	;# 
  1350  070E                     	;# 
  1351  070F                     	;# 
  1352  0710                     	;# 
  1353  0711                     	;# 
  1354  0712                     	;# 
  1355  0713                     	;# 
  1356  0716                     	;# 
  1357  0717                     	;# 
  1358  0718                     	;# 
  1359  0719                     	;# 
  1360  071A                     	;# 
  1361  071B                     	;# 
  1362  071C                     	;# 
  1363  071D                     	;# 
  1364  0796                     	;# 
  1365  0797                     	;# 
  1366  0798                     	;# 
  1367  0799                     	;# 
  1368  079A                     	;# 
  1369  079B                     	;# 
  1370  080C                     	;# 
  1371  080D                     	;# 
  1372  080E                     	;# 
  1373  080F                     	;# 
  1374  0810                     	;# 
  1375  0811                     	;# 
  1376  0812                     	;# 
  1377  0813                     	;# 
  1378  0814                     	;# 
  1379  081A                     	;# 
  1380  081A                     	;# 
  1381  081B                     	;# 
  1382  081C                     	;# 
  1383  081C                     	;# 
  1384  081D                     	;# 
  1385  081E                     	;# 
  1386  081F                     	;# 
  1387  088C                     	;# 
  1388  088D                     	;# 
  1389  088E                     	;# 
  1390  088F                     	;# 
  1391  0890                     	;# 
  1392  0891                     	;# 
  1393  0892                     	;# 
  1394  0893                     	;# 
  1395  0895                     	;# 
  1396  0896                     	;# 
  1397  090C                     	;# 
  1398  090E                     	;# 
  1399  090F                     	;# 
  1400  091F                     	;# 
  1401  098F                     	;# 
  1402  098F                     	;# 
  1403  0990                     	;# 
  1404  0991                     	;# 
  1405  0992                     	;# 
  1406  0993                     	;# 
  1407  0994                     	;# 
  1408  0995                     	;# 
  1409  0996                     	;# 
  1410  0997                     	;# 
  1411  1E0F                     	;# 
  1412  1E10                     	;# 
  1413  1E11                     	;# 
  1414  1E12                     	;# 
  1415  1E13                     	;# 
  1416  1E14                     	;# 
  1417  1E15                     	;# 
  1418  1E16                     	;# 
  1419  1E17                     	;# 
  1420  1E18                     	;# 
  1421  1E19                     	;# 
  1422  1E1A                     	;# 
  1423  1E1B                     	;# 
  1424  1E1C                     	;# 
  1425  1E1D                     	;# 
  1426  1E1E                     	;# 
  1427  1E1F                     	;# 
  1428  1E20                     	;# 
  1429  1E21                     	;# 
  1430  1E22                     	;# 
  1431  1E23                     	;# 
  1432  1E24                     	;# 
  1433  1E25                     	;# 
  1434  1E26                     	;# 
  1435  1E27                     	;# 
  1436  1E28                     	;# 
  1437  1E29                     	;# 
  1438  1E2A                     	;# 
  1439  1E2B                     	;# 
  1440  1E2C                     	;# 
  1441  1E2D                     	;# 
  1442  1E2E                     	;# 
  1443  1E2F                     	;# 
  1444  1E30                     	;# 
  1445  1E31                     	;# 
  1446  1E32                     	;# 
  1447  1E33                     	;# 
  1448  1E34                     	;# 
  1449  1E35                     	;# 
  1450  1E36                     	;# 
  1451  1E37                     	;# 
  1452  1E8F                     	;# 
  1453  1E90                     	;# 
  1454  1E91                     	;# 
  1455  1E92                     	;# 
  1456  1E93                     	;# 
  1457  1E9C                     	;# 
  1458  1EA1                     	;# 
  1459  1EA2                     	;# 
  1460  1EB1                     	;# 
  1461  1EBB                     	;# 
  1462  1EBC                     	;# 
  1463  1EBD                     	;# 
  1464  1EBE                     	;# 
  1465  1EC3                     	;# 
  1466  1EC5                     	;# 
  1467  1EC6                     	;# 
  1468  1EC7                     	;# 
  1469  1ECB                     	;# 
  1470  1ECC                     	;# 
  1471  1F10                     	;# 
  1472  1F11                     	;# 
  1473  1F12                     	;# 
  1474  1F13                     	;# 
  1475  1F14                     	;# 
  1476  1F15                     	;# 
  1477  1F20                     	;# 
  1478  1F21                     	;# 
  1479  1F22                     	;# 
  1480  1F23                     	;# 
  1481  1F24                     	;# 
  1482  1F25                     	;# 
  1483  1F38                     	;# 
  1484  1F39                     	;# 
  1485  1F3A                     	;# 
  1486  1F3B                     	;# 
  1487  1F3C                     	;# 
  1488  1F3D                     	;# 
  1489  1F3E                     	;# 
  1490  1F3F                     	;# 
  1491  1F4E                     	;# 
  1492  1F4F                     	;# 
  1493  1F50                     	;# 
  1494  1F51                     	;# 
  1495  1F52                     	;# 
  1496  1F53                     	;# 
  1497  1F54                     	;# 
  1498  1F55                     	;# 
  1499  1FE4                     	;# 
  1500  1FE5                     	;# 
  1501  1FE6                     	;# 
  1502  1FE7                     	;# 
  1503  1FE8                     	;# 
  1504  1FE8                     	;# 
  1505  1FE9                     	;# 
  1506  1FEA                     	;# 
  1507  1FEA                     	;# 
  1508  1FEB                     	;# 
  1509  1FED                     	;# 
  1510  1FEE                     	;# 
  1511  1FEF                     	;# 
  1512                           
  1513                           	psect	stringtext1
  1514  01C9                     __pstringtext1:	
  1515  01C9                     _cmd_getData:	
  1516  01C9  3451               	retlw	81
  1517  01CA  3400               	retlw	0
  1518  01CB                     __end_of_cmd_getData:	
  1519                           
  1520                           	psect	stringtext2
  1521  01CB                     __pstringtext2:	
  1522  01CB                     _moduleIndex:	
  1523  01CB  3401               	retlw	1
  1524  01CC  3400               	retlw	0
  1525  01CD                     __end_of_moduleIndex:	
  1526                           
  1527                           	psect	stringtext3
  1528  01CD                     __pstringtext3:	
  1529  01CD                     _cmd_getModuleIndex:	
  1530  01CD  3450               	retlw	80
  1531  01CE  3400               	retlw	0
  1532  01CF                     __end_of_cmd_getModuleIndex:	
  1533                           
  1534                           	psect	nvBANK0
  1535  0031                     __pnvBANK0:	
  1536  0031                     _IOCAF2_InterruptHandler:	
  1537  0031                     	ds	2
  1538  0014                     _TRISCbits	set	20
  1539  000C                     _PORTAbits	set	12
  1540  000E                     _PORTCbits	set	14
  1541  001A                     _LATCbits	set	26
  1542  0014                     _TRISC	set	20
  1543  0012                     _TRISA	set	18
  1544  001A                     _LATC	set	26
  1545  0018                     _LATA	set	24
  1546  000B                     _INTCONbits	set	11
  1547  0190                     _SSP1CON1bits	set	400
  1548  018F                     _SSP1STATbits	set	399
  1549  018C                     _SSP1BUF	set	396
  1550  0191                     _SSP1CON2bits	set	401
  1551  018E                     _SSP1MSK	set	398
  1552  018D                     _SSP1ADD	set	397
  1553  0192                     _SSP1CON3	set	402
  1554  0191                     _SSP1CON2	set	401
  1555  0190                     _SSP1CON1	set	400
  1556  018F                     _SSP1STAT	set	399
  1557  070F                     _PIR3bits	set	1807
  1558  0719                     _PIE3bits	set	1817
  1559  070C                     _PIR0bits	set	1804
  1560  0716                     _PIE0bits	set	1814
  1561  079B                     _PMD5	set	1947
  1562  079A                     _PMD4	set	1946
  1563  0799                     _PMD3	set	1945
  1564  0798                     _PMD2	set	1944
  1565  0797                     _PMD1	set	1943
  1566  0796                     _PMD0	set	1942
  1567  0892                     _OSCTUNE	set	2194
  1568  0890                     _OSCSTAT	set	2192
  1569  0893                     _OSCFRQ	set	2195
  1570  0891                     _OSCEN	set	2193
  1571  088F                     _OSCCON3	set	2191
  1572  088D                     _OSCCON1	set	2189
  1573  1EC6                     _SSP1DATPPS	set	7878
  1574  1EC5                     _SSP1CLKPPS	set	7877
  1575  1F4E                     _ANSELCbits	set	8014
  1576  1F21                     _RC1PPS	set	7969
  1577  1F20                     _RC0PPS	set	7968
  1578  1F3D                     _IOCAPbits	set	7997
  1579  1F3E                     _IOCANbits	set	7998
  1580  1F3F                     _IOCAFbits	set	7999
  1581  1F51                     _SLRCONC	set	8017
  1582  1F3B                     _SLRCONA	set	7995
  1583  1F50                     _ODCONC	set	8016
  1584  1F3A                     _ODCONA	set	7994
  1585  1F4F                     _WPUC	set	8015
  1586  1F39                     _WPUA	set	7993
  1587  1F38                     _ANSELA	set	7992
  1588  1F4E                     _ANSELC	set	8014
  1589                           
  1590                           ; #config settings
  1591  0000                     
  1592                           	psect	cinit
  1593  001A                     start_initialization:	
  1594  001A                     __initialization:	
  1595                           
  1596                           ; Clear objects allocated to COMMON
  1597  001A  01FD               	clrf	__pbssCOMMON& (0+127)
  1598                           
  1599                           ; Clear objects allocated to BANK0
  1600  001B  0140               	movlb	0	; select bank0
  1601  001C  01AB               	clrf	__pbssBANK0& (0+127)
  1602  001D  01AC               	clrf	(__pbssBANK0+1)& (0+127)
  1603  001E  01AD               	clrf	(__pbssBANK0+2)& (0+127)
  1604  001F  01AE               	clrf	(__pbssBANK0+3)& (0+127)
  1605  0020  01AF               	clrf	(__pbssBANK0+4)& (0+127)
  1606  0021  01B0               	clrf	(__pbssBANK0+5)& (0+127)
  1607  0022                     end_of_initialization:	
  1608                           ;End of C runtime variable initialization code
  1609                           
  1610  0022                     __end_of__initialization:	
  1611  0022  107E               	bcf	int$flags,0	;clear compiler interrupt flag (level 1)
  1612  0023  0140               	movlb	0
  1613  0024  2886               	ljmp	_main	;jump to C main() function
  1614                           
  1615                           	psect	bssCOMMON
  1616  007D                     __pbssCOMMON:	
  1617  007D                     _lastCmd:	
  1618  007D                     	ds	1
  1619                           
  1620                           	psect	bssBANK0
  1621  002B                     __pbssBANK0:	
  1622  002B                     _d3:	
  1623  002B                     	ds	1
  1624  002C                     _d2:	
  1625  002C                     	ds	1
  1626  002D                     _d1:	
  1627  002D                     	ds	1
  1628  002E                     _d0:	
  1629  002E                     	ds	1
  1630  002F                     _RF_RECEIVED:	
  1631  002F                     	ds	1
  1632  0030                     _I2C_RX_CMD:	
  1633  0030                     	ds	1
  1634                           
  1635                           	psect	cstackCOMMON
  1636  0070                     __pcstackCOMMON:	
  1637  0070                     ?_PIN_MANAGER_IOC:	
  1638  0070                     ??_PIN_MANAGER_IOC:	
  1639                           ; 1 bytes @ 0x0
  1640                           
  1641  0070                     ?_I2C_BusCollisionISR:	
  1642                           ; 1 bytes @ 0x0
  1643                           
  1644  0070                     ??_I2C_BusCollisionISR:	
  1645                           ; 1 bytes @ 0x0
  1646                           
  1647  0070                     ?_I2C_Slave_ISR:	
  1648                           ; 1 bytes @ 0x0
  1649                           
  1650  0070                     ?_PMD_Initialize:	
  1651                           ; 1 bytes @ 0x0
  1652                           
  1653  0070                     ?_PIN_MANAGER_Initialize:	
  1654                           ; 1 bytes @ 0x0
  1655                           
  1656  0070                     ?_OSCILLATOR_Initialize:	
  1657                           ; 1 bytes @ 0x0
  1658                           
  1659  0070                     ?_I2C1_Initialize:	
  1660                           ; 1 bytes @ 0x0
  1661                           
  1662  0070                     ?_I2C_Slave_Init:	
  1663                           ; 1 bytes @ 0x0
  1664                           
  1665  0070                     ?_IOCAF2_DefaultInterruptHandler:	
  1666                           ; 1 bytes @ 0x0
  1667                           
  1668  0070                     ??_IOCAF2_DefaultInterruptHandler:	
  1669                           ; 1 bytes @ 0x0
  1670                           
  1671  0070                     ?_IOCAF2_ISR:	
  1672                           ; 1 bytes @ 0x0
  1673                           
  1674  0070                     ??_IOCAF2_ISR:	
  1675                           ; 1 bytes @ 0x0
  1676                           
  1677  0070                     ?_INTERRUPT_InterruptManager:	
  1678                           ; 1 bytes @ 0x0
  1679                           
  1680  0070                     ?_SYSTEM_Initialize:	
  1681                           ; 1 bytes @ 0x0
  1682                           
  1683  0070                     ?_IOC_ISR:	
  1684                           ; 1 bytes @ 0x0
  1685                           
  1686  0070                     ??_IOC_ISR:	
  1687                           ; 1 bytes @ 0x0
  1688                           
  1689  0070                     ?_main:	
  1690                           ; 1 bytes @ 0x0
  1691                           
  1692  0070                     ?_I2C_Slave_Send_ACK:	
  1693                           ; 1 bytes @ 0x0
  1694                           
  1695  0070                     ??_I2C_Slave_Send_ACK:	
  1696                           ; 1 bytes @ 0x0
  1697                           
  1698  0070                     ?i1_Delay_Xms:	
  1699                           ; 1 bytes @ 0x0
  1700                           
  1701  0070                     I2C_Slave_Send_ACK@Ack:	
  1702                           ; 1 bytes @ 0x0
  1703                           
  1704  0070                     i1Delay_Xms@delay:	
  1705                           ; 1 bytes @ 0x0
  1706                           
  1707                           
  1708                           ; 4 bytes @ 0x0
  1709  0070                     	ds	4
  1710  0074                     ??i1_Delay_Xms:	
  1711                           
  1712                           ; 1 bytes @ 0x4
  1713  0074                     	ds	1
  1714  0075                     i1Delay_Xms@i:	
  1715                           
  1716                           ; 4 bytes @ 0x5
  1717  0075                     	ds	4
  1718  0079                     ??_I2C_Slave_ISR:	
  1719                           
  1720                           ; 1 bytes @ 0x9
  1721  0079                     	ds	4
  1722  007D                     ??_INTERRUPT_InterruptManager:	
  1723                           
  1724                           	psect	cstackBANK0
  1725  0020                     __pcstackBANK0:	
  1726                           ; 1 bytes @ 0xD
  1727                           
  1728  0020                     	ds	1
  1729  0021                     I2C_Slave_ISR@dx:	
  1730                           
  1731                           ; 1 bytes @ 0x1
  1732  0021                     	ds	1
  1733  0022                     ??_PMD_Initialize:	
  1734  0022                     ??_OSCILLATOR_Initialize:	
  1735                           ; 1 bytes @ 0x2
  1736                           
  1737  0022                     ??_I2C1_Initialize:	
  1738                           ; 1 bytes @ 0x2
  1739                           
  1740  0022                     ??_I2C_Slave_Init:	
  1741                           ; 1 bytes @ 0x2
  1742                           
  1743  0022                     ?_IOCAF2_SetInterruptHandler:	
  1744                           ; 1 bytes @ 0x2
  1745                           
  1746  0022                     ?_Delay_Xms:	
  1747                           ; 1 bytes @ 0x2
  1748                           
  1749  0022                     IOCAF2_SetInterruptHandler@InterruptHandler:	
  1750                           ; 1 bytes @ 0x2
  1751                           
  1752  0022                     Delay_Xms@delay:	
  1753                           ; 2 bytes @ 0x2
  1754                           
  1755                           
  1756                           ; 4 bytes @ 0x2
  1757  0022                     	ds	2
  1758  0024                     ??_PIN_MANAGER_Initialize:	
  1759  0024                     ??_IOCAF2_SetInterruptHandler:	
  1760                           ; 1 bytes @ 0x4
  1761                           
  1762  0024                     ??_SYSTEM_Initialize:	
  1763                           ; 1 bytes @ 0x4
  1764                           
  1765                           
  1766                           ; 1 bytes @ 0x4
  1767  0024                     	ds	2
  1768  0026                     ??_Delay_Xms:	
  1769                           
  1770                           ; 1 bytes @ 0x6
  1771  0026                     	ds	1
  1772  0027                     Delay_Xms@i:	
  1773                           
  1774                           ; 4 bytes @ 0x7
  1775  0027                     	ds	4
  1776  002B                     ??_main:	
  1777                           
  1778                           	psect	maintext
  1779  0086                     __pmaintext:	
  1780                           ; 1 bytes @ 0xB
  1781 ;;
  1782 ;;Main: autosize = 0, tempsize = 0, incstack = 0, save=0
  1783 ;;
  1784 ;; *************** function _main *****************
  1785 ;; Defined at:
  1786 ;;		line 66 in file "main.c"
  1787 ;; Parameters:    Size  Location     Type
  1788 ;;		None
  1789 ;; Auto vars:     Size  Location     Type
  1790 ;;		None
  1791 ;; Return value:  Size  Location     Type
  1792 ;;                  1    wreg      void 
  1793 ;; Registers used:
  1794 ;;		wreg, status,2, status,0, pclath, cstack
  1795 ;; Tracked objects:
  1796 ;;		On entry : B3F/0
  1797 ;;		On exit  : 0/0
  1798 ;;		Unchanged: 0/0
  1799 ;; Data sizes:     COMMON   BANK0   BANK1   BANK2
  1800 ;;      Params:         0       0       0       0
  1801 ;;      Locals:         0       0       0       0
  1802 ;;      Temps:          0       0       0       0
  1803 ;;      Totals:         0       0       0       0
  1804 ;;Total ram usage:        0 bytes
  1805 ;; Hardware stack levels required when called:    7
  1806 ;; This function calls:
  1807 ;;		_Delay_Xms
  1808 ;;		_IOCAF2_SetInterruptHandler
  1809 ;;		_SYSTEM_Initialize
  1810 ;; This function is called by:
  1811 ;;		Startup code after reset
  1812 ;; This function uses a non-reentrant model
  1813 ;;
  1814                           
  1815                           
  1816                           ;psect for function _main
  1817  0086                     _main:	
  1818                           
  1819                           ;main.c: 69:     SYSTEM_Initialize();
  1820                           
  1821                           ;incstack = 0
  1822                           ; Regs used in _main: [wreg+status,2+status,0+pclath+cstack]
  1823  0086  21B8               	fcall	_SYSTEM_Initialize
  1824                           
  1825                           ;main.c: 75:     (INTCONbits.GIE = 1);
  1826  0087  178B               	bsf	11,7	;volatile
  1827                           
  1828                           ;main.c: 78:     (INTCONbits.PEIE = 1);
  1829  0088  170B               	bsf	11,6	;volatile
  1830                           
  1831                           ;main.c: 86:     IOCAF2_SetInterruptHandler(IOC_ISR);
  1832  0089  30C2               	movlw	low _IOC_ISR
  1833  008A  0140               	movlb	0	; select bank0
  1834  008B  00A2               	movwf	IOCAF2_SetInterruptHandler@InterruptHandler
  1835  008C  3001               	movlw	high _IOC_ISR
  1836  008D  00A3               	movwf	IOCAF2_SetInterruptHandler@InterruptHandler+1
  1837  008E  21B2               	fcall	_IOCAF2_SetInterruptHandler
  1838  008F  0140               	movlb	0	; select bank0
  1839  0090  119A               	bcf	26,3	;volatile
  1840                           
  1841                           ;main.c: 89:     Delay_Xms(500);
  1842  0091  3000               	movlw	0
  1843  0092  00A5               	movwf	Delay_Xms@delay+3
  1844  0093  3000               	movlw	0
  1845  0094  00A4               	movwf	Delay_Xms@delay+2
  1846  0095  3001               	movlw	1
  1847  0096  00A3               	movwf	Delay_Xms@delay+1
  1848  0097  30F4               	movlw	244
  1849  0098  00A2               	movwf	Delay_Xms@delay
  1850  0099  20DA               	fcall	_Delay_Xms
  1851  009A  0140               	movlb	0	; select bank0
  1852  009B  159A               	bsf	26,3	;volatile
  1853                           
  1854                           ;main.c: 91:     Delay_Xms(500);
  1855  009C  3000               	movlw	0
  1856  009D  00A5               	movwf	Delay_Xms@delay+3
  1857  009E  3000               	movlw	0
  1858  009F  00A4               	movwf	Delay_Xms@delay+2
  1859  00A0  3001               	movlw	1
  1860  00A1  00A3               	movwf	Delay_Xms@delay+1
  1861  00A2  30F4               	movlw	244
  1862  00A3                     L1:	
  1863  00A3  00A2               	movwf	Delay_Xms@delay
  1864  00A4  20DA               	fcall	_Delay_Xms
  1865                           
  1866                           ;main.c: 94:     {;main.c: 95:         if(RF_RECEIVED == 1) {
  1867  00A5  0140               	movlb	0	; select bank0
  1868  00A6  032F               	decf	_RF_RECEIVED,w
  1869  00A7  1D03               	btfss	3,2
  1870  00A8  28D2               	goto	l1457
  1871                           
  1872                           ;main.c: 96:             d0 = PORTCbits.RC4;
  1873  00A9  3000               	movlw	0
  1874  00AA  1A0E               	btfsc	14,4	;volatile
  1875  00AB  3001               	movlw	1
  1876  00AC  00AE               	movwf	_d0
  1877                           
  1878                           ;main.c: 97:             d1 = PORTCbits.RC5;
  1879  00AD  3000               	movlw	0
  1880  00AE  1A8E               	btfsc	14,5	;volatile
  1881  00AF  3001               	movlw	1
  1882  00B0  00AD               	movwf	_d1
  1883                           
  1884                           ;main.c: 98:             d2 = PORTAbits.RA4;
  1885  00B1  3000               	movlw	0
  1886  00B2  1A0C               	btfsc	12,4	;volatile
  1887  00B3  3001               	movlw	1
  1888  00B4  00AC               	movwf	_d2
  1889                           
  1890                           ;main.c: 99:             d3 = PORTAbits.RA5;
  1891  00B5  3000               	movlw	0
  1892  00B6  1A8C               	btfsc	12,5	;volatile
  1893  00B7  3001               	movlw	1
  1894  00B8  00AB               	movwf	_d3
  1895                           
  1896                           ;main.c: 101:             RF_RECEIVED = 0;
  1897  00B9  01AF               	clrf	_RF_RECEIVED
  1898  00BA  119A               	bcf	26,3	;volatile
  1899                           
  1900                           ;main.c: 103:             Delay_Xms(100);
  1901  00BB  3000               	movlw	0
  1902  00BC  00A5               	movwf	Delay_Xms@delay+3
  1903  00BD  3000               	movlw	0
  1904  00BE  00A4               	movwf	Delay_Xms@delay+2
  1905  00BF  3000               	movlw	0
  1906  00C0  00A3               	movwf	Delay_Xms@delay+1
  1907  00C1  3064               	movlw	100
  1908  00C2  00A2               	movwf	Delay_Xms@delay
  1909  00C3  20DA               	fcall	_Delay_Xms
  1910  00C4  0140               	movlb	0	; select bank0
  1911  00C5  159A               	bsf	26,3	;volatile
  1912  00C6  111A               	bcf	26,2	;volatile
  1913                           
  1914                           ;main.c: 107:             Delay_Xms(1);
  1915  00C7  3000               	movlw	0
  1916  00C8  00A5               	movwf	Delay_Xms@delay+3
  1917  00C9  3000               	movlw	0
  1918  00CA  00A4               	movwf	Delay_Xms@delay+2
  1919  00CB  3000               	movlw	0
  1920  00CC  00A3               	movwf	Delay_Xms@delay+1
  1921  00CD  3001               	movlw	1
  1922  00CE  00A2               	movwf	Delay_Xms@delay
  1923  00CF  20DA               	fcall	_Delay_Xms
  1924  00D0  0140               	movlb	0	; select bank0
  1925  00D1  151A               	bsf	26,2	;volatile
  1926  00D2                     l1457:	
  1927                           
  1928                           ;main.c: 111:         Delay_Xms(100);
  1929  00D2  3000               	movlw	0
  1930  00D3  00A5               	movwf	Delay_Xms@delay+3
  1931  00D4  3000               	movlw	0
  1932  00D5  00A4               	movwf	Delay_Xms@delay+2
  1933  00D6  3000               	movlw	0
  1934  00D7  00A3               	movwf	Delay_Xms@delay+1
  1935  00D8  3064               	movlw	100
  1936  00D9  28A3               	goto	L1
  1937  00DA                     __end_of_main:	
  1938                           
  1939                           	psect	text1
  1940  01B8                     __ptext1:	
  1941 ;; *************** function _SYSTEM_Initialize *****************
  1942 ;; Defined at:
  1943 ;;		line 49 in file "mcc_generated_files/mcc.c"
  1944 ;; Parameters:    Size  Location     Type
  1945 ;;		None
  1946 ;; Auto vars:     Size  Location     Type
  1947 ;;		None
  1948 ;; Return value:  Size  Location     Type
  1949 ;;                  1    wreg      void 
  1950 ;; Registers used:
  1951 ;;		wreg, status,2, status,0, pclath, cstack
  1952 ;; Tracked objects:
  1953 ;;		On entry : 0/0
  1954 ;;		On exit  : 0/0
  1955 ;;		Unchanged: 0/0
  1956 ;; Data sizes:     COMMON   BANK0   BANK1   BANK2
  1957 ;;      Params:         0       0       0       0
  1958 ;;      Locals:         0       0       0       0
  1959 ;;      Temps:          0       0       0       0
  1960 ;;      Totals:         0       0       0       0
  1961 ;;Total ram usage:        0 bytes
  1962 ;; Hardware stack levels used:    1
  1963 ;; Hardware stack levels required when called:    6
  1964 ;; This function calls:
  1965 ;;		_I2C1_Initialize
  1966 ;;		_OSCILLATOR_Initialize
  1967 ;;		_PIN_MANAGER_Initialize
  1968 ;;		_PMD_Initialize
  1969 ;; This function is called by:
  1970 ;;		_main
  1971 ;; This function uses a non-reentrant model
  1972 ;;
  1973                           
  1974                           
  1975                           ;psect for function _SYSTEM_Initialize
  1976  01B8                     _SYSTEM_Initialize:	
  1977                           
  1978                           ;mcc_generated_files/mcc.c: 51:     PMD_Initialize();
  1979                           
  1980                           ;incstack = 0
  1981                           ; Regs used in _SYSTEM_Initialize: [wreg+status,2+status,0+pclath+cstack]
  1982  01B8  21AA               	fcall	_PMD_Initialize
  1983                           
  1984                           ;mcc_generated_files/mcc.c: 52:     PIN_MANAGER_Initialize();
  1985  01B9  210A               	fcall	_PIN_MANAGER_Initialize
  1986                           
  1987                           ;mcc_generated_files/mcc.c: 53:     OSCILLATOR_Initialize();
  1988  01BA  21A0               	fcall	_OSCILLATOR_Initialize
  1989                           
  1990                           ;mcc_generated_files/mcc.c: 54:     I2C1_Initialize();
  1991  01BB  21CF               	fcall	_I2C1_Initialize
  1992  01BC  0008               	return
  1993  01BD                     __end_of_SYSTEM_Initialize:	
  1994                           
  1995                           	psect	text2
  1996  01AA                     __ptext2:	
  1997 ;; *************** function _PMD_Initialize *****************
  1998 ;; Defined at:
  1999 ;;		line 73 in file "mcc_generated_files/mcc.c"
  2000 ;; Parameters:    Size  Location     Type
  2001 ;;		None
  2002 ;; Auto vars:     Size  Location     Type
  2003 ;;		None
  2004 ;; Return value:  Size  Location     Type
  2005 ;;                  1    wreg      void 
  2006 ;; Registers used:
  2007 ;;		status,2
  2008 ;; Tracked objects:
  2009 ;;		On entry : 0/0
  2010 ;;		On exit  : 0/0
  2011 ;;		Unchanged: 0/0
  2012 ;; Data sizes:     COMMON   BANK0   BANK1   BANK2
  2013 ;;      Params:         0       0       0       0
  2014 ;;      Locals:         0       0       0       0
  2015 ;;      Temps:          0       0       0       0
  2016 ;;      Totals:         0       0       0       0
  2017 ;;Total ram usage:        0 bytes
  2018 ;; Hardware stack levels used:    1
  2019 ;; Hardware stack levels required when called:    4
  2020 ;; This function calls:
  2021 ;;		Nothing
  2022 ;; This function is called by:
  2023 ;;		_SYSTEM_Initialize
  2024 ;; This function uses a non-reentrant model
  2025 ;;
  2026                           
  2027                           
  2028                           ;psect for function _PMD_Initialize
  2029  01AA                     _PMD_Initialize:	
  2030                           
  2031                           ;mcc_generated_files/mcc.c: 76:     PMD0 = 0x00;
  2032                           
  2033                           ;incstack = 0
  2034                           ; Regs used in _PMD_Initialize: [status,2]
  2035  01AA  014F               	movlb	15	; select bank15
  2036  01AB  0196               	clrf	22	;volatile
  2037                           
  2038                           ;mcc_generated_files/mcc.c: 78:     PMD1 = 0x00;
  2039  01AC  0197               	clrf	23	;volatile
  2040                           
  2041                           ;mcc_generated_files/mcc.c: 80:     PMD2 = 0x00;
  2042  01AD  0198               	clrf	24	;volatile
  2043                           
  2044                           ;mcc_generated_files/mcc.c: 82:     PMD3 = 0x00;
  2045  01AE  0199               	clrf	25	;volatile
  2046                           
  2047                           ;mcc_generated_files/mcc.c: 84:     PMD4 = 0x00;
  2048  01AF  019A               	clrf	26	;volatile
  2049                           
  2050                           ;mcc_generated_files/mcc.c: 86:     PMD5 = 0x00;
  2051  01B0  019B               	clrf	27	;volatile
  2052  01B1  0008               	return
  2053  01B2                     __end_of_PMD_Initialize:	
  2054                           
  2055                           	psect	text3
  2056  010A                     __ptext3:	
  2057 ;; *************** function _PIN_MANAGER_Initialize *****************
  2058 ;; Defined at:
  2059 ;;		line 55 in file "mcc_generated_files/pin_manager.c"
  2060 ;; Parameters:    Size  Location     Type
  2061 ;;		None
  2062 ;; Auto vars:     Size  Location     Type
  2063 ;;		None
  2064 ;; Return value:  Size  Location     Type
  2065 ;;                  1    wreg      void 
  2066 ;; Registers used:
  2067 ;;		wreg, status,2, status,0, pclath, cstack
  2068 ;; Tracked objects:
  2069 ;;		On entry : 0/0
  2070 ;;		On exit  : 0/0
  2071 ;;		Unchanged: 0/0
  2072 ;; Data sizes:     COMMON   BANK0   BANK1   BANK2
  2073 ;;      Params:         0       0       0       0
  2074 ;;      Locals:         0       0       0       0
  2075 ;;      Temps:          0       0       0       0
  2076 ;;      Totals:         0       0       0       0
  2077 ;;Total ram usage:        0 bytes
  2078 ;; Hardware stack levels used:    1
  2079 ;; Hardware stack levels required when called:    5
  2080 ;; This function calls:
  2081 ;;		_IOCAF2_SetInterruptHandler
  2082 ;; This function is called by:
  2083 ;;		_SYSTEM_Initialize
  2084 ;; This function uses a non-reentrant model
  2085 ;;
  2086                           
  2087                           
  2088                           ;psect for function _PIN_MANAGER_Initialize
  2089  010A                     _PIN_MANAGER_Initialize:	
  2090                           
  2091                           ;mcc_generated_files/pin_manager.c: 60:     LATA = 0x00;
  2092                           
  2093                           ;incstack = 0
  2094                           ; Regs used in _PIN_MANAGER_Initialize: [wreg+status,2+status,0+pclath+cstack]
  2095  010A  0140               	movlb	0	; select bank0
  2096  010B  0198               	clrf	24	;volatile
  2097                           
  2098                           ;mcc_generated_files/pin_manager.c: 61:     LATC = 0x04;
  2099  010C  3004               	movlw	4
  2100  010D  009A               	movwf	26	;volatile
  2101                           
  2102                           ;mcc_generated_files/pin_manager.c: 66:     TRISA = 0x37;
  2103  010E  3037               	movlw	55
  2104  010F  0092               	movwf	18	;volatile
  2105                           
  2106                           ;mcc_generated_files/pin_manager.c: 67:     TRISC = 0x33;
  2107  0110  3033               	movlw	51
  2108  0111  0094               	movwf	20	;volatile
  2109                           
  2110                           ;mcc_generated_files/pin_manager.c: 72:     ANSELC = 0x00;
  2111  0112  017E               	movlb	62	; select bank62
  2112  0113  01CE               	clrf	78	;volatile
  2113                           
  2114                           ;mcc_generated_files/pin_manager.c: 73:     ANSELA = 0x00;
  2115  0114  01B8               	clrf	56	;volatile
  2116                           
  2117                           ;mcc_generated_files/pin_manager.c: 78:     WPUA = 0x00;
  2118  0115  01B9               	clrf	57	;volatile
  2119                           
  2120                           ;mcc_generated_files/pin_manager.c: 79:     WPUC = 0x00;
  2121  0116  01CF               	clrf	79	;volatile
  2122                           
  2123                           ;mcc_generated_files/pin_manager.c: 84:     ODCONA = 0x00;
  2124  0117  01BA               	clrf	58	;volatile
  2125                           
  2126                           ;mcc_generated_files/pin_manager.c: 85:     ODCONC = 0x0C;
  2127  0118  300C               	movlw	12
  2128  0119  00D0               	movwf	80	;volatile
  2129                           
  2130                           ;mcc_generated_files/pin_manager.c: 90:     SLRCONA = 0x37;
  2131  011A  3037               	movlw	55
  2132  011B  00BB               	movwf	59	;volatile
  2133                           
  2134                           ;mcc_generated_files/pin_manager.c: 91:     SLRCONC = 0x3F;
  2135  011C  303F               	movlw	63
  2136  011D  00D1               	movwf	81	;volatile
  2137                           
  2138                           ;mcc_generated_files/pin_manager.c: 98:     IOCAFbits.IOCAF2 = 0;
  2139  011E  113F               	bcf	63,2	;volatile
  2140                           
  2141                           ;mcc_generated_files/pin_manager.c: 100:     IOCANbits.IOCAN2 = 0;
  2142  011F  113E               	bcf	62,2	;volatile
  2143                           
  2144                           ;mcc_generated_files/pin_manager.c: 102:     IOCAPbits.IOCAP2 = 1;
  2145  0120  153D               	bsf	61,2	;volatile
  2146                           
  2147                           ;mcc_generated_files/pin_manager.c: 107:     IOCAF2_SetInterruptHandler(IOCAF2_DefaultIn
      +                          terruptHandler);
  2148  0121  30D1               	movlw	low _IOCAF2_DefaultInterruptHandler
  2149  0122  0140               	movlb	0	; select bank0
  2150  0123  00A2               	movwf	IOCAF2_SetInterruptHandler@InterruptHandler
  2151  0124  3001               	movlw	high _IOCAF2_DefaultInterruptHandler
  2152  0125  00A3               	movwf	IOCAF2_SetInterruptHandler@InterruptHandler+1
  2153  0126  21B2               	fcall	_IOCAF2_SetInterruptHandler
  2154                           
  2155                           ;mcc_generated_files/pin_manager.c: 110:     PIE0bits.IOCIE = 1;
  2156  0127  014E               	movlb	14	; select bank14
  2157  0128  1616               	bsf	22,4	;volatile
  2158                           
  2159                           ;mcc_generated_files/pin_manager.c: 113:     RC0PPS = 0x15;
  2160  0129  3015               	movlw	21
  2161  012A  017E               	movlb	62	; select bank62
  2162  012B  00A0               	movwf	32	;volatile
  2163                           
  2164                           ;mcc_generated_files/pin_manager.c: 114:     SSP1CLKPPS = 0x10;
  2165  012C  3010               	movlw	16
  2166  012D  017D               	movlb	61	; select bank61
  2167  012E  00C5               	movwf	69	;volatile
  2168                           
  2169                           ;mcc_generated_files/pin_manager.c: 115:     RC1PPS = 0x16;
  2170  012F  3016               	movlw	22
  2171  0130  017E               	movlb	62	; select bank62
  2172  0131  00A1               	movwf	33	;volatile
  2173                           
  2174                           ;mcc_generated_files/pin_manager.c: 116:     SSP1DATPPS = 0x11;
  2175  0132  3011               	movlw	17
  2176  0133  017D               	movlb	61	; select bank61
  2177  0134  00C6               	movwf	70	;volatile
  2178  0135  0008               	return
  2179  0136                     __end_of_PIN_MANAGER_Initialize:	
  2180                           
  2181                           	psect	text4
  2182  01B2                     __ptext4:	
  2183 ;; *************** function _IOCAF2_SetInterruptHandler *****************
  2184 ;; Defined at:
  2185 ;;		line 146 in file "mcc_generated_files/pin_manager.c"
  2186 ;; Parameters:    Size  Location     Type
  2187 ;;  InterruptHan    2    2[BANK0 ] PTR FTN()void 
  2188 ;;		 -> IOC_ISR(1), IOCAF2_DefaultInterruptHandler(1), 
  2189 ;; Auto vars:     Size  Location     Type
  2190 ;;		None
  2191 ;; Return value:  Size  Location     Type
  2192 ;;                  1    wreg      void 
  2193 ;; Registers used:
  2194 ;;		wreg
  2195 ;; Tracked objects:
  2196 ;;		On entry : 0/0
  2197 ;;		On exit  : 0/0
  2198 ;;		Unchanged: 0/0
  2199 ;; Data sizes:     COMMON   BANK0   BANK1   BANK2
  2200 ;;      Params:         0       2       0       0
  2201 ;;      Locals:         0       0       0       0
  2202 ;;      Temps:          0       0       0       0
  2203 ;;      Totals:         0       2       0       0
  2204 ;;Total ram usage:        2 bytes
  2205 ;; Hardware stack levels used:    1
  2206 ;; Hardware stack levels required when called:    4
  2207 ;; This function calls:
  2208 ;;		Nothing
  2209 ;; This function is called by:
  2210 ;;		_PIN_MANAGER_Initialize
  2211 ;;		_main
  2212 ;; This function uses a non-reentrant model
  2213 ;;
  2214                           
  2215                           
  2216                           ;psect for function _IOCAF2_SetInterruptHandler
  2217  01B2                     _IOCAF2_SetInterruptHandler:	
  2218                           
  2219                           ;mcc_generated_files/pin_manager.c: 147:     IOCAF2_InterruptHandler = InterruptHandler;
  2220                           
  2221                           ;incstack = 0
  2222                           ; Regs used in _IOCAF2_SetInterruptHandler: [wreg]
  2223  01B2  0140               	movlb	0	; select bank0
  2224  01B3  0823               	movf	IOCAF2_SetInterruptHandler@InterruptHandler+1,w
  2225  01B4  00B2               	movwf	_IOCAF2_InterruptHandler+1
  2226  01B5  0822               	movf	IOCAF2_SetInterruptHandler@InterruptHandler,w
  2227  01B6  00B1               	movwf	_IOCAF2_InterruptHandler
  2228  01B7  0008               	return
  2229  01B8                     __end_of_IOCAF2_SetInterruptHandler:	
  2230                           
  2231                           	psect	text5
  2232  01A0                     __ptext5:	
  2233 ;; *************** function _OSCILLATOR_Initialize *****************
  2234 ;; Defined at:
  2235 ;;		line 57 in file "mcc_generated_files/mcc.c"
  2236 ;; Parameters:    Size  Location     Type
  2237 ;;		None
  2238 ;; Auto vars:     Size  Location     Type
  2239 ;;		None
  2240 ;; Return value:  Size  Location     Type
  2241 ;;                  1    wreg      void 
  2242 ;; Registers used:
  2243 ;;		wreg, status,2
  2244 ;; Tracked objects:
  2245 ;;		On entry : 0/0
  2246 ;;		On exit  : 0/0
  2247 ;;		Unchanged: 0/0
  2248 ;; Data sizes:     COMMON   BANK0   BANK1   BANK2
  2249 ;;      Params:         0       0       0       0
  2250 ;;      Locals:         0       0       0       0
  2251 ;;      Temps:          0       0       0       0
  2252 ;;      Totals:         0       0       0       0
  2253 ;;Total ram usage:        0 bytes
  2254 ;; Hardware stack levels used:    1
  2255 ;; Hardware stack levels required when called:    4
  2256 ;; This function calls:
  2257 ;;		Nothing
  2258 ;; This function is called by:
  2259 ;;		_SYSTEM_Initialize
  2260 ;; This function uses a non-reentrant model
  2261 ;;
  2262                           
  2263                           
  2264                           ;psect for function _OSCILLATOR_Initialize
  2265  01A0                     _OSCILLATOR_Initialize:	
  2266                           
  2267                           ;mcc_generated_files/mcc.c: 60:     OSCCON1 = 0x62;
  2268                           
  2269                           ;incstack = 0
  2270                           ; Regs used in _OSCILLATOR_Initialize: [wreg+status,2]
  2271  01A0  3062               	movlw	98
  2272  01A1  0151               	movlb	17	; select bank17
  2273  01A2  008D               	movwf	13	;volatile
  2274                           
  2275                           ;mcc_generated_files/mcc.c: 62:     OSCCON3 = 0x00;
  2276  01A3  018F               	clrf	15	;volatile
  2277                           
  2278                           ;mcc_generated_files/mcc.c: 64:     OSCEN = 0x00;
  2279  01A4  0191               	clrf	17	;volatile
  2280                           
  2281                           ;mcc_generated_files/mcc.c: 66:     OSCFRQ = 0x06;
  2282  01A5  3006               	movlw	6
  2283  01A6  0093               	movwf	19	;volatile
  2284                           
  2285                           ;mcc_generated_files/mcc.c: 68:     OSCSTAT = 0x00;
  2286  01A7  0190               	clrf	16	;volatile
  2287                           
  2288                           ;mcc_generated_files/mcc.c: 70:     OSCTUNE = 0x00;
  2289  01A8  0192               	clrf	18	;volatile
  2290  01A9  0008               	return
  2291  01AA                     __end_of_OSCILLATOR_Initialize:	
  2292                           
  2293                           	psect	text6
  2294  01CF                     __ptext6:	
  2295 ;; *************** function _I2C1_Initialize *****************
  2296 ;; Defined at:
  2297 ;;		line 89 in file "mcc_generated_files/mcc.c"
  2298 ;; Parameters:    Size  Location     Type
  2299 ;;		None
  2300 ;; Auto vars:     Size  Location     Type
  2301 ;;		None
  2302 ;; Return value:  Size  Location     Type
  2303 ;;                  1    wreg      void 
  2304 ;; Registers used:
  2305 ;;		wreg, status,2, status,0, pclath, cstack
  2306 ;; Tracked objects:
  2307 ;;		On entry : 0/0
  2308 ;;		On exit  : 0/0
  2309 ;;		Unchanged: 0/0
  2310 ;; Data sizes:     COMMON   BANK0   BANK1   BANK2
  2311 ;;      Params:         0       0       0       0
  2312 ;;      Locals:         0       0       0       0
  2313 ;;      Temps:          0       0       0       0
  2314 ;;      Totals:         0       0       0       0
  2315 ;;Total ram usage:        0 bytes
  2316 ;; Hardware stack levels used:    1
  2317 ;; Hardware stack levels required when called:    5
  2318 ;; This function calls:
  2319 ;;		_I2C_Slave_Init
  2320 ;; This function is called by:
  2321 ;;		_SYSTEM_Initialize
  2322 ;; This function uses a non-reentrant model
  2323 ;;
  2324                           
  2325                           
  2326                           ;psect for function _I2C1_Initialize
  2327  01CF                     _I2C1_Initialize:	
  2328                           
  2329                           ;mcc_generated_files/mcc.c: 90:     I2C_Slave_Init();
  2330                           
  2331                           ;incstack = 0
  2332                           ; Regs used in _I2C1_Initialize: [wreg+status,2+status,0+pclath+cstack]
  2333  01CF  2162               	fcall	_I2C_Slave_Init
  2334  01D0  0008               	return
  2335  01D1                     __end_of_I2C1_Initialize:	
  2336                           
  2337                           	psect	text7
  2338  0162                     __ptext7:	
  2339 ;; *************** function _I2C_Slave_Init *****************
  2340 ;; Defined at:
  2341 ;;		line 99 in file "iic.c"
  2342 ;; Parameters:    Size  Location     Type
  2343 ;;		None
  2344 ;; Auto vars:     Size  Location     Type
  2345 ;;		None
  2346 ;; Return value:  Size  Location     Type
  2347 ;;                  1    wreg      void 
  2348 ;; Registers used:
  2349 ;;		wreg, status,2
  2350 ;; Tracked objects:
  2351 ;;		On entry : 0/0
  2352 ;;		On exit  : 0/0
  2353 ;;		Unchanged: 0/0
  2354 ;; Data sizes:     COMMON   BANK0   BANK1   BANK2
  2355 ;;      Params:         0       0       0       0
  2356 ;;      Locals:         0       0       0       0
  2357 ;;      Temps:          0       0       0       0
  2358 ;;      Totals:         0       0       0       0
  2359 ;;Total ram usage:        0 bytes
  2360 ;; Hardware stack levels used:    1
  2361 ;; Hardware stack levels required when called:    4
  2362 ;; This function calls:
  2363 ;;		Nothing
  2364 ;; This function is called by:
  2365 ;;		_I2C1_Initialize
  2366 ;; This function uses a non-reentrant model
  2367 ;;
  2368                           
  2369                           
  2370                           ;psect for function _I2C_Slave_Init
  2371  0162                     _I2C_Slave_Init:	
  2372                           
  2373                           ;incstack = 0
  2374                           ; Regs used in _I2C_Slave_Init: [wreg+status,2]
  2375                           ;iic.c: 101:     do { ANSELCbits.ANSC0 = 0; } while(0);
  2376  0162  017E               	movlb	62	; select bank62
  2377  0163  104E               	bcf	78,0	;volatile
  2378                           
  2379                           ;iic.c: 102:     do { TRISCbits.TRISC0 = 1; } while(0);
  2380  0164  0140               	movlb	0	; select bank0
  2381  0165  1414               	bsf	20,0	;volatile
  2382                           
  2383                           ;iic.c: 103:     SSP1CLKPPS = 0x10;
  2384  0166  3010               	movlw	16
  2385  0167  017D               	movlb	61	; select bank61
  2386  0168  00C5               	movwf	69	;volatile
  2387                           
  2388                           ;iic.c: 104:     RC0PPS = 0x15;
  2389  0169  3015               	movlw	21
  2390  016A  017E               	movlb	62	; select bank62
  2391  016B  00A0               	movwf	32	;volatile
  2392  016C  10CE               	bcf	78,1	;volatile
  2393  016D  0140               	movlb	0	; select bank0
  2394  016E  1494               	bsf	20,1	;volatile
  2395                           
  2396                           ;iic.c: 108:     SSP1DATPPS = 0x11;
  2397  016F  3011               	movlw	17
  2398  0170  017D               	movlb	61	; select bank61
  2399  0171  00C6               	movwf	70	;volatile
  2400                           
  2401                           ;iic.c: 109:     RC1PPS = 0x16;
  2402  0172  3016               	movlw	22
  2403  0173  017E               	movlb	62	; select bank62
  2404  0174  00A1               	movwf	33	;volatile
  2405                           
  2406                           ;iic.c: 111:     SSP1STAT = 0b00000000;
  2407  0175  0143               	movlb	3	; select bank3
  2408  0176  018F               	clrf	15	;volatile
  2409                           
  2410                           ;iic.c: 122:     SSP1CON1 = 0b00100110;
  2411  0177  3026               	movlw	38
  2412  0178  0090               	movwf	16	;volatile
  2413                           
  2414                           ;iic.c: 129:     SSP1CON2 = 0b10000000;
  2415  0179  3080               	movlw	128
  2416  017A  0091               	movwf	17	;volatile
  2417                           
  2418                           ;iic.c: 139:     SSP1CON3 = 0b00100100;
  2419  017B  3024               	movlw	36
  2420  017C  0092               	movwf	18	;volatile
  2421                           
  2422                           ;iic.c: 151:     SSP1ADD = 0x70 << 1;
  2423  017D  30E0               	movlw	224
  2424  017E  008D               	movwf	13	;volatile
  2425                           
  2426                           ;iic.c: 153:     SSP1MSK = 0xFF;
  2427  017F  30FF               	movlw	255
  2428  0180  008E               	movwf	14	;volatile
  2429                           
  2430                           ;iic.c: 155:     PIR3bits.BCL1IF = 0;
  2431  0181  014E               	movlb	14	; select bank14
  2432  0182  108F               	bcf	15,1	;volatile
  2433                           
  2434                           ;iic.c: 157:     PIE3bits.BCL1IE = 1;
  2435  0183  1499               	bsf	25,1	;volatile
  2436                           
  2437                           ;iic.c: 159:     PIE3bits.SSP1IE = 1;
  2438  0184  1419               	bsf	25,0	;volatile
  2439  0185  0008               	return
  2440  0186                     __end_of_I2C_Slave_Init:	
  2441                           
  2442                           	psect	text8
  2443  00DA                     __ptext8:	
  2444 ;; *************** function _Delay_Xms *****************
  2445 ;; Defined at:
  2446 ;;		line 53 in file "main.c"
  2447 ;; Parameters:    Size  Location     Type
  2448 ;;  delay           4    2[BANK0 ] long 
  2449 ;; Auto vars:     Size  Location     Type
  2450 ;;  i               4    7[BANK0 ] long 
  2451 ;; Return value:  Size  Location     Type
  2452 ;;                  1    wreg      void 
  2453 ;; Registers used:
  2454 ;;		wreg
  2455 ;; Tracked objects:
  2456 ;;		On entry : 0/0
  2457 ;;		On exit  : 0/0
  2458 ;;		Unchanged: 0/0
  2459 ;; Data sizes:     COMMON   BANK0   BANK1   BANK2
  2460 ;;      Params:         0       4       0       0
  2461 ;;      Locals:         0       4       0       0
  2462 ;;      Temps:          0       1       0       0
  2463 ;;      Totals:         0       9       0       0
  2464 ;;Total ram usage:        9 bytes
  2465 ;; Hardware stack levels used:    1
  2466 ;; Hardware stack levels required when called:    4
  2467 ;; This function calls:
  2468 ;;		Nothing
  2469 ;; This function is called by:
  2470 ;;		_main
  2471 ;; This function uses a non-reentrant model
  2472 ;;
  2473                           
  2474                           
  2475                           ;psect for function _Delay_Xms
  2476  00DA                     _Delay_Xms:	
  2477                           
  2478                           ;main.c: 54:     for(long i = 0; i < delay; i++) {
  2479                           
  2480                           ;incstack = 0
  2481                           ; Regs used in _Delay_Xms: [wreg]
  2482  00DA  3000               	movlw	0
  2483  00DB  0140               	movlb	0	; select bank0
  2484  00DC  00AA               	movwf	Delay_Xms@i+3
  2485  00DD  3000               	movlw	0
  2486  00DE  00A9               	movwf	Delay_Xms@i+2
  2487  00DF  3000               	movlw	0
  2488  00E0  00A8               	movwf	Delay_Xms@i+1
  2489  00E1  3000               	movlw	0
  2490  00E2  00A7               	movwf	Delay_Xms@i
  2491  00E3                     l191:	
  2492  00E3  082A               	movf	Delay_Xms@i+3,w
  2493  00E4  3A80               	xorlw	128
  2494  00E5  00A6               	movwf	??_Delay_Xms
  2495  00E6  0825               	movf	Delay_Xms@delay+3,w
  2496  00E7  3A80               	xorlw	128
  2497  00E8  0226               	subwf	??_Delay_Xms,w
  2498  00E9  1D03               	skipz
  2499  00EA  28F5               	goto	u683
  2500  00EB  0824               	movf	Delay_Xms@delay+2,w
  2501  00EC  0229               	subwf	Delay_Xms@i+2,w
  2502  00ED  1D03               	skipz
  2503  00EE  28F5               	goto	u683
  2504  00EF  0823               	movf	Delay_Xms@delay+1,w
  2505  00F0  0228               	subwf	Delay_Xms@i+1,w
  2506  00F1  1D03               	skipz
  2507  00F2  28F5               	goto	u683
  2508  00F3  0822               	movf	Delay_Xms@delay,w
  2509  00F4  0227               	subwf	Delay_Xms@i,w
  2510  00F5                     u683:	
  2511  00F5  1803               	btfsc	3,0
  2512  00F6  0008               	return
  2513                           
  2514                           ;main.c: 55:         _delay((unsigned long)((1)*(8000000/4000.0)));
  2515  00F7  3003               	movlw	3
  2516  00F8  0140               	movlb	0	; select bank0
  2517  00F9  00A6               	movwf	??_Delay_Xms
  2518  00FA  3097               	movlw	151
  2519  00FB                     u777:	
  2520  00FB  0B89               	decfsz	9,f
  2521  00FC  28FB               	goto	u777
  2522  00FD  0BA6               	decfsz	??_Delay_Xms,f
  2523  00FE  28FB               	goto	u777
  2524  00FF  3200               	nop2
  2525                           
  2526                           ;main.c: 56:     }
  2527  0100  3001               	movlw	1
  2528  0101  0140               	movlb	0	; select bank0
  2529  0102  07A7               	addwf	Delay_Xms@i,f
  2530  0103  3000               	movlw	0
  2531  0104  3DA8               	addwfc	Delay_Xms@i+1,f
  2532  0105  3000               	movlw	0
  2533  0106  3DA9               	addwfc	Delay_Xms@i+2,f
  2534  0107  3000               	movlw	0
  2535  0108  3DAA               	addwfc	Delay_Xms@i+3,f
  2536  0109  28E3               	goto	l191
  2537  010A                     __end_of_Delay_Xms:	
  2538                           
  2539                           	psect	intentry
  2540  0004                     __pintentry:	
  2541 ;; *************** function _INTERRUPT_InterruptManager *****************
  2542 ;; Defined at:
  2543 ;;		line 53 in file "mcc_generated_files/interrupt_manager.c"
  2544 ;; Parameters:    Size  Location     Type
  2545 ;;		None
  2546 ;; Auto vars:     Size  Location     Type
  2547 ;;		None
  2548 ;; Return value:  Size  Location     Type
  2549 ;;                  1    wreg      void 
  2550 ;; Registers used:
  2551 ;;		wreg, status,2, status,0, pclath, cstack
  2552 ;; Tracked objects:
  2553 ;;		On entry : 0/0
  2554 ;;		On exit  : 0/0
  2555 ;;		Unchanged: 0/0
  2556 ;; Data sizes:     COMMON   BANK0   BANK1   BANK2
  2557 ;;      Params:         0       0       0       0
  2558 ;;      Locals:         0       0       0       0
  2559 ;;      Temps:          0       0       0       0
  2560 ;;      Totals:         0       0       0       0
  2561 ;;Total ram usage:        0 bytes
  2562 ;; Hardware stack levels used:    1
  2563 ;; Hardware stack levels required when called:    3
  2564 ;; This function calls:
  2565 ;;		_I2C_BusCollisionISR
  2566 ;;		_I2C_Slave_ISR
  2567 ;;		_PIN_MANAGER_IOC
  2568 ;; This function is called by:
  2569 ;;		Interrupt level 1
  2570 ;; This function uses a non-reentrant model
  2571 ;;
  2572                           
  2573  0004                     _INTERRUPT_InterruptManager:	
  2574                           
  2575                           ;incstack = 0
  2576  0004  147E               	bsf	126,0	;set compiler interrupt flag (level 1)
  2577                           
  2578                           ; Regs used in _INTERRUPT_InterruptManager: [wreg+status,2+status,0+pclath+cstack]
  2579  0005  3180               	pagesel	$
  2580                           
  2581                           ;mcc_generated_files/interrupt_manager.c: 56:     if(PIE0bits.IOCIE == 1 && PIR0bits.IOC
      +                          IF == 1)
  2582  0006  014E               	movlb	14	; select bank14
  2583  0007  1A16               	btfsc	22,4	;volatile
  2584  0008  1E0C               	btfss	12,4	;volatile
  2585  0009  280C               	goto	i1l23
  2586                           
  2587                           ;mcc_generated_files/interrupt_manager.c: 57:     {;mcc_generated_files/interrupt_manage
      +                          r.c: 58:         PIN_MANAGER_IOC();
  2588  000A  21BD               	fcall	_PIN_MANAGER_IOC
  2589                           
  2590                           ;mcc_generated_files/interrupt_manager.c: 59:     }
  2591  000B  2817               	goto	i1l31
  2592  000C                     i1l23:	
  2593                           ;mcc_generated_files/interrupt_manager.c: 60:     else if(INTCONbits.PEIE == 1)
  2594                           
  2595  000C  1F0B               	btfss	11,6	;volatile
  2596  000D  2817               	goto	i1l31
  2597                           
  2598                           ;mcc_generated_files/interrupt_manager.c: 61:     {;mcc_generated_files/interrupt_manage
      +                          r.c: 63:         if(PIE3bits.BCL1IE == 1 && PIR3bits.BCL1IF == 1)
  2599  000E  1899               	btfsc	25,1	;volatile
  2600  000F  1C8F               	btfss	15,1	;volatile
  2601  0010  2813               	goto	i1l26
  2602                           
  2603                           ;mcc_generated_files/interrupt_manager.c: 64:         {;mcc_generated_files/interrupt_ma
      +                          nager.c: 65:             I2C_BusCollisionISR();
  2604  0011  21C6               	fcall	_I2C_BusCollisionISR
  2605                           
  2606                           ;mcc_generated_files/interrupt_manager.c: 66:         }
  2607  0012  2817               	goto	i1l31
  2608  0013                     i1l26:	
  2609                           ;mcc_generated_files/interrupt_manager.c: 68:         else if(PIE3bits.SSP1IE == 1 && PI
      +                          R3bits.SSP1IF == 1)
  2610                           
  2611  0013  1819               	btfsc	25,0	;volatile
  2612  0014  1C0F               	btfss	15,0	;volatile
  2613  0015  2817               	goto	i1l31
  2614                           
  2615                           ;mcc_generated_files/interrupt_manager.c: 69:         {;mcc_generated_files/interrupt_ma
      +                          nager.c: 70:             I2C_Slave_ISR();
  2616  0016  2025               	fcall	_I2C_Slave_ISR
  2617  0017                     i1l31:	
  2618                           ;mcc_generated_files/interrupt_manager.c: 78:     {;mcc_generated_files/interrupt_manage
      +                          r.c: 80:     }
  2619                           
  2620                           ;mcc_generated_files/interrupt_manager.c: 71:         }
  2621                           
  2622  0017  107E               	bcf	126,0	;clear compiler interrupt flag (level 1)
  2623  0018  0009               	retfie
  2624  0019                     __end_of_INTERRUPT_InterruptManager:	
  2625                           
  2626                           	psect	text10
  2627  01BD                     __ptext10:	
  2628 ;; *************** function _PIN_MANAGER_IOC *****************
  2629 ;; Defined at:
  2630 ;;		line 119 in file "mcc_generated_files/pin_manager.c"
  2631 ;; Parameters:    Size  Location     Type
  2632 ;;		None
  2633 ;; Auto vars:     Size  Location     Type
  2634 ;;		None
  2635 ;; Return value:  Size  Location     Type
  2636 ;;                  1    wreg      void 
  2637 ;; Registers used:
  2638 ;;		wreg, status,2, status,0, pclath, cstack
  2639 ;; Tracked objects:
  2640 ;;		On entry : 0/0
  2641 ;;		On exit  : 0/0
  2642 ;;		Unchanged: 0/0
  2643 ;; Data sizes:     COMMON   BANK0   BANK1   BANK2
  2644 ;;      Params:         0       0       0       0
  2645 ;;      Locals:         0       0       0       0
  2646 ;;      Temps:          0       0       0       0
  2647 ;;      Totals:         0       0       0       0
  2648 ;;Total ram usage:        0 bytes
  2649 ;; Hardware stack levels used:    1
  2650 ;; Hardware stack levels required when called:    2
  2651 ;; This function calls:
  2652 ;;		_IOCAF2_ISR
  2653 ;; This function is called by:
  2654 ;;		_INTERRUPT_InterruptManager
  2655 ;; This function uses a non-reentrant model
  2656 ;;
  2657                           
  2658                           
  2659                           ;psect for function _PIN_MANAGER_IOC
  2660  01BD                     _PIN_MANAGER_IOC:	
  2661                           
  2662                           ;mcc_generated_files/pin_manager.c: 122:     if(IOCAFbits.IOCAF2 == 1)
  2663                           
  2664                           ;incstack = 0
  2665                           ; Regs used in _PIN_MANAGER_IOC: [wreg+status,2+status,0+pclath+cstack]
  2666  01BD  017E               	movlb	62	; select bank62
  2667  01BE  1D3F               	btfss	63,2	;volatile
  2668  01BF  0008               	return
  2669                           
  2670                           ;mcc_generated_files/pin_manager.c: 123:     {;mcc_generated_files/pin_manager.c: 124:  
      +                                 IOCAF2_ISR();
  2671  01C0  2186               	fcall	_IOCAF2_ISR
  2672  01C1  0008               	return
  2673  01C2                     __end_of_PIN_MANAGER_IOC:	
  2674                           
  2675                           	psect	text11
  2676  0186                     __ptext11:	
  2677 ;; *************** function _IOCAF2_ISR *****************
  2678 ;; Defined at:
  2679 ;;		line 131 in file "mcc_generated_files/pin_manager.c"
  2680 ;; Parameters:    Size  Location     Type
  2681 ;;		None
  2682 ;; Auto vars:     Size  Location     Type
  2683 ;;		None
  2684 ;; Return value:  Size  Location     Type
  2685 ;;                  1    wreg      void 
  2686 ;; Registers used:
  2687 ;;		wreg, status,2, status,0, pclath, cstack
  2688 ;; Tracked objects:
  2689 ;;		On entry : 0/0
  2690 ;;		On exit  : 0/0
  2691 ;;		Unchanged: 0/0
  2692 ;; Data sizes:     COMMON   BANK0   BANK1   BANK2
  2693 ;;      Params:         0       0       0       0
  2694 ;;      Locals:         0       0       0       0
  2695 ;;      Temps:          0       0       0       0
  2696 ;;      Totals:         0       0       0       0
  2697 ;;Total ram usage:        0 bytes
  2698 ;; Hardware stack levels used:    1
  2699 ;; Hardware stack levels required when called:    1
  2700 ;; This function calls:
  2701 ;;		Absolute function
  2702 ;;		_IOCAF2_DefaultInterruptHandler
  2703 ;;		_IOC_ISR
  2704 ;; This function is called by:
  2705 ;;		_PIN_MANAGER_IOC
  2706 ;; This function uses a non-reentrant model
  2707 ;;
  2708                           
  2709                           
  2710                           ;psect for function _IOCAF2_ISR
  2711  0186                     _IOCAF2_ISR:	
  2712                           
  2713                           ;mcc_generated_files/pin_manager.c: 136:     if(IOCAF2_InterruptHandler)
  2714                           
  2715                           ;incstack = 0
  2716                           ; Regs used in _IOCAF2_ISR: [wreg+status,2+status,0+pclath+cstack]
  2717  0186  0140               	movlb	0	; select bank0
  2718  0187  0831               	movf	_IOCAF2_InterruptHandler,w
  2719  0188  0432               	iorwf	_IOCAF2_InterruptHandler+1,w
  2720  0189  1903               	btfsc	3,2
  2721  018A  2990               	goto	i1l1357
  2722                           
  2723                           ;mcc_generated_files/pin_manager.c: 137:     {;mcc_generated_files/pin_manager.c: 138:  
      +                                 IOCAF2_InterruptHandler();
  2724  018B  0832               	movf	_IOCAF2_InterruptHandler+1,w
  2725  018C  008A               	movwf	10
  2726  018D  0831               	movf	_IOCAF2_InterruptHandler,w
  2727  018E  000A               	callw
  2728  018F  3181               	pagesel	$
  2729  0190                     i1l1357:	
  2730                           
  2731                           ;mcc_generated_files/pin_manager.c: 140:     IOCAFbits.IOCAF2 = 0;
  2732  0190  017E               	movlb	62	; select bank62
  2733  0191  113F               	bcf	63,2	;volatile
  2734  0192  0008               	return
  2735  0193                     __end_of_IOCAF2_ISR:	
  2736                           
  2737                           	psect	text12
  2738  01D1                     __ptext12:	
  2739 ;; *************** function _IOCAF2_DefaultInterruptHandler *****************
  2740 ;; Defined at:
  2741 ;;		line 153 in file "mcc_generated_files/pin_manager.c"
  2742 ;; Parameters:    Size  Location     Type
  2743 ;;		None
  2744 ;; Auto vars:     Size  Location     Type
  2745 ;;		None
  2746 ;; Return value:  Size  Location     Type
  2747 ;;                  1    wreg      void 
  2748 ;; Registers used:
  2749 ;;		None
  2750 ;; Tracked objects:
  2751 ;;		On entry : 0/0
  2752 ;;		On exit  : 0/0
  2753 ;;		Unchanged: 0/0
  2754 ;; Data sizes:     COMMON   BANK0   BANK1   BANK2
  2755 ;;      Params:         0       0       0       0
  2756 ;;      Locals:         0       0       0       0
  2757 ;;      Temps:          0       0       0       0
  2758 ;;      Totals:         0       0       0       0
  2759 ;;Total ram usage:        0 bytes
  2760 ;; Hardware stack levels used:    1
  2761 ;; This function calls:
  2762 ;;		Nothing
  2763 ;; This function is called by:
  2764 ;;		_PIN_MANAGER_Initialize
  2765 ;;		_IOCAF2_ISR
  2766 ;; This function uses a non-reentrant model
  2767 ;;
  2768                           
  2769                           
  2770                           ;psect for function _IOCAF2_DefaultInterruptHandler
  2771  01D1                     _IOCAF2_DefaultInterruptHandler:	
  2772                           
  2773                           ;incstack = 0
  2774                           ; Regs used in _IOCAF2_DefaultInterruptHandler: []
  2775  01D1  0008               	return
  2776  01D2                     __end_of_IOCAF2_DefaultInterruptHandler:	
  2777                           
  2778                           	psect	text13
  2779  01C2                     __ptext13:	
  2780 ;; *************** function _IOC_ISR *****************
  2781 ;; Defined at:
  2782 ;;		line 59 in file "main.c"
  2783 ;; Parameters:    Size  Location     Type
  2784 ;;		None
  2785 ;; Auto vars:     Size  Location     Type
  2786 ;;		None
  2787 ;; Return value:  Size  Location     Type
  2788 ;;                  1    wreg      void 
  2789 ;; Registers used:
  2790 ;;		None
  2791 ;; Tracked objects:
  2792 ;;		On entry : 0/0
  2793 ;;		On exit  : 0/0
  2794 ;;		Unchanged: 0/0
  2795 ;; Data sizes:     COMMON   BANK0   BANK1   BANK2
  2796 ;;      Params:         0       0       0       0
  2797 ;;      Locals:         0       0       0       0
  2798 ;;      Temps:          0       0       0       0
  2799 ;;      Totals:         0       0       0       0
  2800 ;;Total ram usage:        0 bytes
  2801 ;; Hardware stack levels used:    1
  2802 ;; This function calls:
  2803 ;;		Nothing
  2804 ;; This function is called by:
  2805 ;;		_main
  2806 ;;		_IOCAF2_ISR
  2807 ;; This function uses a non-reentrant model
  2808 ;;
  2809                           
  2810                           
  2811                           ;psect for function _IOC_ISR
  2812  01C2                     _IOC_ISR:	
  2813                           
  2814                           ;main.c: 60:     RF_RECEIVED = 1;
  2815                           
  2816                           ;incstack = 0
  2817                           ; Regs used in _IOC_ISR: []
  2818  01C2  0140               	movlb	0	; select bank0
  2819  01C3  01AF               	clrf	_RF_RECEIVED
  2820  01C4  0AAF               	incf	_RF_RECEIVED,f
  2821  01C5  0008               	return
  2822  01C6                     __end_of_IOC_ISR:	
  2823                           
  2824                           	psect	text14
  2825  0025                     __ptext14:	
  2826 ;; *************** function _I2C_Slave_ISR *****************
  2827 ;; Defined at:
  2828 ;;		line 430 in file "iic.c"
  2829 ;; Parameters:    Size  Location     Type
  2830 ;;		None
  2831 ;; Auto vars:     Size  Location     Type
  2832 ;;  dx              1    1[BANK0 ] unsigned char 
  2833 ;;  data            1    0        unsigned char 
  2834 ;; Return value:  Size  Location     Type
  2835 ;;                  1    wreg      void 
  2836 ;; Registers used:
  2837 ;;		wreg, status,2, status,0, pclath, cstack
  2838 ;; Tracked objects:
  2839 ;;		On entry : 0/0
  2840 ;;		On exit  : 0/0
  2841 ;;		Unchanged: 0/0
  2842 ;; Data sizes:     COMMON   BANK0   BANK1   BANK2
  2843 ;;      Params:         0       0       0       0
  2844 ;;      Locals:         0       2       0       0
  2845 ;;      Temps:          4       0       0       0
  2846 ;;      Totals:         4       2       0       0
  2847 ;;Total ram usage:        6 bytes
  2848 ;; Hardware stack levels used:    1
  2849 ;; Hardware stack levels required when called:    1
  2850 ;; This function calls:
  2851 ;;		_I2C_Slave_Send_ACK
  2852 ;;		i1_Delay_Xms
  2853 ;; This function is called by:
  2854 ;;		_INTERRUPT_InterruptManager
  2855 ;; This function uses a non-reentrant model
  2856 ;;
  2857                           
  2858                           
  2859                           ;psect for function _I2C_Slave_ISR
  2860  0025                     _I2C_Slave_ISR:	
  2861                           
  2862                           ;iic.c: 431:     PIR3bits.SSP1IF = 0;
  2863                           
  2864                           ;incstack = 0
  2865                           ; Regs used in _I2C_Slave_ISR: [wreg+status,2+status,0+pclath+cstack]
  2866  0025  014E               	movlb	14	; select bank14
  2867  0026  100F               	bcf	15,0	;volatile
  2868                           
  2869                           ;iic.c: 434:     if(SSP1STATbits.S == 1) {
  2870  0027  0143               	movlb	3	; select bank3
  2871  0028  1D8F               	btfss	15,3	;volatile
  2872  0029  0008               	return
  2873                           
  2874                           ;iic.c: 438:         I2C_Slave_Send_ACK(0);
  2875  002A  3000               	movlw	0
  2876  002B  2193               	fcall	_I2C_Slave_Send_ACK
  2877  002C  0143               	movlb	3	; select bank3
  2878  002D  080C               	movf	12,w	;volatile
  2879                           
  2880                           ;iic.c: 444:         if(SSP1STATbits.R_nW == 1) {
  2881  002E  1D0F               	btfss	15,2	;volatile
  2882  002F  287B               	goto	i1l406
  2883                           
  2884                           ;iic.c: 447:             if(I2C_RX_CMD == 0x50) {
  2885  0030  3050               	movlw	80
  2886  0031  0140               	movlb	0	; select bank0
  2887  0032  0630               	xorwf	_I2C_RX_CMD,w
  2888  0033  1D03               	btfss	3,2
  2889  0034  2837               	goto	i1l1381
  2890                           
  2891                           ;iic.c: 448:                 SSP1BUF = 0x01;
  2892  0035  3001               	movlw	1
  2893  0036  2856               	goto	L2
  2894  0037                     i1l1381:	
  2895                           ;iic.c: 449:             } else if (I2C_RX_CMD == 0x51) {
  2896                           
  2897  0037  3051               	movlw	81
  2898  0038  0630               	xorwf	_I2C_RX_CMD,w
  2899  0039  1D03               	btfss	3,2
  2900  003A  2858               	goto	i1l1387
  2901                           
  2902                           ;iic.c: 450:                 unsigned char dx = d0 * 1 + d1 * 2 + d2 * 4 + d3 * 8;
  2903  003B  082D               	movf	_d1,w
  2904  003C  00F9               	movwf	??_I2C_Slave_ISR
  2905  003D  3001               	movlw	1
  2906  003E                     u61_25:	
  2907  003E  35F9               	lslf	??_I2C_Slave_ISR,f
  2908  003F  0B89               	decfsz	9,f
  2909  0040  283E               	goto	u61_25
  2910  0041  082C               	movf	_d2,w
  2911  0042  00FA               	movwf	??_I2C_Slave_ISR+1
  2912  0043  3002               	movlw	2
  2913  0044                     u62_25:	
  2914  0044  35FA               	lslf	??_I2C_Slave_ISR+1,f
  2915  0045  0B89               	decfsz	9,f
  2916  0046  2844               	goto	u62_25
  2917  0047  082B               	movf	_d3,w
  2918  0048  00FB               	movwf	??_I2C_Slave_ISR+2
  2919  0049  3002               	movlw	2
  2920  004A                     u63_25:	
  2921  004A  35FB               	lslf	??_I2C_Slave_ISR+2,f
  2922  004B  3EFF               	addlw	-1
  2923  004C  1D03               	skipz
  2924  004D  284A               	goto	u63_25
  2925  004E  357B               	lslf	??_I2C_Slave_ISR+2,w
  2926  004F  077A               	addwf	??_I2C_Slave_ISR+1,w
  2927  0050  0779               	addwf	??_I2C_Slave_ISR,w
  2928  0051  072E               	addwf	_d0,w
  2929  0052  00FC               	movwf	??_I2C_Slave_ISR+3
  2930  0053  087C               	movf	??_I2C_Slave_ISR+3,w
  2931  0054  00A1               	movwf	I2C_Slave_ISR@dx
  2932                           
  2933                           ;iic.c: 451:                 SSP1BUF = dx;
  2934  0055  0821               	movf	I2C_Slave_ISR@dx,w
  2935  0056                     L2:	
  2936  0056  0143               	movlb	3	; select bank3
  2937  0057  008C               	movwf	12	;volatile
  2938  0058                     i1l1387:	
  2939                           
  2940                           ;iic.c: 454:             Delay_Xms(1);
  2941  0058  3000               	movlw	0
  2942  0059  00F3               	movwf	i1Delay_Xms@delay+3
  2943  005A  3000               	movlw	0
  2944  005B  00F2               	movwf	i1Delay_Xms@delay+2
  2945  005C  3000               	movlw	0
  2946  005D  00F1               	movwf	i1Delay_Xms@delay+1
  2947  005E  3001               	movlw	1
  2948  005F  00F0               	movwf	i1Delay_Xms@delay
  2949  0060  2136               	fcall	i1_Delay_Xms
  2950                           
  2951                           ;iic.c: 457:             SSP1CON1bits.CKP = 1;
  2952  0061  0143               	movlb	3	; select bank3
  2953  0062  1610               	bsf	16,4	;volatile
  2954  0063                     i1l396:	
  2955                           ;iic.c: 460:             while(!PIR3bits.SSP1IF);
  2956                           
  2957  0063  014E               	movlb	14	; select bank14
  2958  0064  1C0F               	btfss	15,0	;volatile
  2959  0065  2863               	goto	i1l396
  2960  0066                     i1l403:	
  2961                           
  2962                           ;iic.c: 475:                 PIR3bits.SSP1IF = 0;
  2963  0066  100F               	bcf	15,0	;volatile
  2964                           
  2965                           ;iic.c: 464:             while(!SSP1CON2bits.ACKSTAT) {
  2966                           
  2967                           ;iic.c: 476:             }
  2968  0067  0143               	movlb	3	; select bank3
  2969  0068  1B11               	btfsc	17,6	;volatile
  2970  0069  0008               	return
  2971                           
  2972                           ;iic.c: 466:                 SSP1BUF = 0xFF;
  2973                           
  2974                           ;iic.c: 464:             while(!SSP1CON2bits.ACKSTAT) {
  2975                           
  2976                           ;iic.c: 461:             PIR3bits.SSP1IF = 0;
  2977  006A  30FF               	movlw	255
  2978  006B  008C               	movwf	12	;volatile
  2979                           
  2980                           ;iic.c: 468:                 Delay_Xms(1);
  2981  006C  3000               	movlw	0
  2982  006D  00F3               	movwf	i1Delay_Xms@delay+3
  2983  006E  3000               	movlw	0
  2984  006F  00F2               	movwf	i1Delay_Xms@delay+2
  2985  0070  3000               	movlw	0
  2986  0071  00F1               	movwf	i1Delay_Xms@delay+1
  2987  0072  3001               	movlw	1
  2988  0073  00F0               	movwf	i1Delay_Xms@delay
  2989  0074  2136               	fcall	i1_Delay_Xms
  2990                           
  2991                           ;iic.c: 471:                 SSP1CON1bits.CKP = 1;
  2992  0075  0143               	movlb	3	; select bank3
  2993  0076  1610               	bsf	16,4	;volatile
  2994  0077                     i1l401:	
  2995                           ;iic.c: 474:                 while(!PIR3bits.SSP1IF);
  2996                           
  2997  0077  014E               	movlb	14	; select bank14
  2998  0078  180F               	btfsc	15,0	;volatile
  2999  0079  2866               	goto	i1l403
  3000  007A  2877               	goto	i1l401
  3001  007B                     i1l406:	
  3002  007B  1C0F               	btfss	15,0	;volatile
  3003  007C  287B               	goto	i1l406
  3004                           
  3005                           ;iic.c: 482:             I2C_Slave_Send_ACK(0);
  3006  007D  3000               	movlw	0
  3007  007E  2193               	fcall	_I2C_Slave_Send_ACK
  3008                           
  3009                           ;iic.c: 484:             I2C_RX_CMD = SSP1BUF;
  3010  007F  0143               	movlb	3	; select bank3
  3011  0080  080C               	movf	12,w	;volatile
  3012  0081  00F9               	movwf	??_I2C_Slave_ISR
  3013  0082  0879               	movf	??_I2C_Slave_ISR,w
  3014  0083  0140               	movlb	0	; select bank0
  3015  0084  00B0               	movwf	_I2C_RX_CMD
  3016  0085  0008               	return
  3017  0086                     __end_of_I2C_Slave_ISR:	
  3018                           
  3019                           	psect	text15
  3020  0136                     __ptext15:	
  3021 ;; *************** function i1_Delay_Xms *****************
  3022 ;; Defined at:
  3023 ;;		line 53 in file "main.c"
  3024 ;; Parameters:    Size  Location     Type
  3025 ;;  delay           4    0[COMMON] long 
  3026 ;; Auto vars:     Size  Location     Type
  3027 ;;  Delay_Xms       4    5[COMMON] long 
  3028 ;; Return value:  Size  Location     Type
  3029 ;;                  1    wreg      void 
  3030 ;; Registers used:
  3031 ;;		wreg
  3032 ;; Tracked objects:
  3033 ;;		On entry : 0/0
  3034 ;;		On exit  : 0/0
  3035 ;;		Unchanged: 0/0
  3036 ;; Data sizes:     COMMON   BANK0   BANK1   BANK2
  3037 ;;      Params:         4       0       0       0
  3038 ;;      Locals:         4       0       0       0
  3039 ;;      Temps:          1       0       0       0
  3040 ;;      Totals:         9       0       0       0
  3041 ;;Total ram usage:        9 bytes
  3042 ;; Hardware stack levels used:    1
  3043 ;; This function calls:
  3044 ;;		Nothing
  3045 ;; This function is called by:
  3046 ;;		_I2C_Slave_ISR
  3047 ;; This function uses a non-reentrant model
  3048 ;;
  3049                           
  3050                           
  3051                           ;psect for function i1_Delay_Xms
  3052  0136                     i1_Delay_Xms:	
  3053                           
  3054                           ;main.c: 54:     for(long i = 0; i < delay; i++) {
  3055                           
  3056                           ;incstack = 0
  3057                           ; Regs used in i1_Delay_Xms: [wreg]
  3058  0136  3000               	movlw	0
  3059  0137  00F8               	movwf	i1Delay_Xms@i+3
  3060  0138  3000               	movlw	0
  3061  0139  00F7               	movwf	i1Delay_Xms@i+2
  3062  013A  3000               	movlw	0
  3063  013B  00F6               	movwf	i1Delay_Xms@i+1
  3064  013C  3000               	movlw	0
  3065  013D  00F5               	movwf	i1Delay_Xms@i
  3066  013E                     i1l191:	
  3067  013E  0878               	movf	i1Delay_Xms@i+3,w
  3068  013F  3A80               	xorlw	128
  3069  0140  00F4               	movwf	??i1_Delay_Xms
  3070  0141  0873               	movf	i1Delay_Xms@delay+3,w
  3071  0142  3A80               	xorlw	128
  3072  0143  0274               	subwf	??i1_Delay_Xms,w
  3073  0144  1D03               	skipz
  3074  0145  2950               	goto	u55_23
  3075  0146  0872               	movf	i1Delay_Xms@delay+2,w
  3076  0147  0277               	subwf	i1Delay_Xms@i+2,w
  3077  0148  1D03               	skipz
  3078  0149  2950               	goto	u55_23
  3079  014A  0871               	movf	i1Delay_Xms@delay+1,w
  3080  014B  0276               	subwf	i1Delay_Xms@i+1,w
  3081  014C  1D03               	skipz
  3082  014D  2950               	goto	u55_23
  3083  014E  0870               	movf	i1Delay_Xms@delay,w
  3084  014F  0275               	subwf	i1Delay_Xms@i,w
  3085  0150                     u55_23:	
  3086  0150  1803               	btfsc	3,0
  3087  0151  0008               	return
  3088                           
  3089                           ;main.c: 55:         _delay((unsigned long)((1)*(8000000/4000.0)));
  3090  0152  3003               	movlw	3
  3091  0153  00F4               	movwf	??i1_Delay_Xms
  3092  0154  3098               	movlw	152
  3093  0155                     u78_27:	
  3094  0155  0B89               	decfsz	9,f
  3095  0156  2955               	goto	u78_27
  3096  0157  0BF4               	decfsz	??i1_Delay_Xms,f
  3097  0158  2955               	goto	u78_27
  3098                           
  3099                           ;main.c: 56:     }
  3100  0159  3001               	movlw	1
  3101  015A  07F5               	addwf	i1Delay_Xms@i,f
  3102  015B  3000               	movlw	0
  3103  015C  3DF6               	addwfc	i1Delay_Xms@i+1,f
  3104  015D  3000               	movlw	0
  3105  015E  3DF7               	addwfc	i1Delay_Xms@i+2,f
  3106  015F  3000               	movlw	0
  3107  0160  3DF8               	addwfc	i1Delay_Xms@i+3,f
  3108  0161  293E               	goto	i1l191
  3109  0162                     __end_ofi1_Delay_Xms:	
  3110                           
  3111                           	psect	text16
  3112  0193                     __ptext16:	
  3113 ;; *************** function _I2C_Slave_Send_ACK *****************
  3114 ;; Defined at:
  3115 ;;		line 200 in file "iic.c"
  3116 ;; Parameters:    Size  Location     Type
  3117 ;;  Ack             1    wreg     unsigned char 
  3118 ;; Auto vars:     Size  Location     Type
  3119 ;;  Ack             1    0[COMMON] unsigned char 
  3120 ;; Return value:  Size  Location     Type
  3121 ;;                  1    wreg      void 
  3122 ;; Registers used:
  3123 ;;		wreg, status,2, status,0
  3124 ;; Tracked objects:
  3125 ;;		On entry : 0/0
  3126 ;;		On exit  : 0/0
  3127 ;;		Unchanged: 0/0
  3128 ;; Data sizes:     COMMON   BANK0   BANK1   BANK2
  3129 ;;      Params:         0       0       0       0
  3130 ;;      Locals:         1       0       0       0
  3131 ;;      Temps:          0       0       0       0
  3132 ;;      Totals:         1       0       0       0
  3133 ;;Total ram usage:        1 bytes
  3134 ;; Hardware stack levels used:    1
  3135 ;; This function calls:
  3136 ;;		Nothing
  3137 ;; This function is called by:
  3138 ;;		_I2C_Slave_ISR
  3139 ;; This function uses a non-reentrant model
  3140 ;;
  3141                           
  3142                           
  3143                           ;psect for function _I2C_Slave_Send_ACK
  3144  0193                     _I2C_Slave_Send_ACK:	
  3145                           
  3146                           ;incstack = 0
  3147                           ; Regs used in _I2C_Slave_Send_ACK: [wreg+status,2+status,0]
  3148                           ;I2C_Slave_Send_ACK@Ack stored from wreg
  3149  0193  00F0               	movwf	I2C_Slave_Send_ACK@Ack
  3150                           
  3151                           ;iic.c: 201:     if(Ack == 0) {
  3152  0194  0870               	movf	I2C_Slave_Send_ACK@Ack,w
  3153  0195  1D03               	btfss	3,2
  3154  0196  2999               	goto	i1l322
  3155                           
  3156                           ;iic.c: 202:         do { LATCbits.LATC1 = 0; } while(0);
  3157  0197  0140               	movlb	0	; select bank0
  3158  0198  109A               	bcf	26,1	;volatile
  3159  0199                     i1l322:	
  3160  0199  014E               	movlb	14	; select bank14
  3161  019A  1C0F               	btfss	15,0	;volatile
  3162  019B  2999               	goto	i1l322
  3163                           
  3164                           ;iic.c: 205:     PIR3bits.SSP1IF = 0;
  3165  019C  100F               	bcf	15,0	;volatile
  3166                           
  3167                           ;iic.c: 206:     do { LATCbits.LATC1 = 1; } while(0);
  3168  019D  0140               	movlb	0	; select bank0
  3169  019E  149A               	bsf	26,1	;volatile
  3170  019F  0008               	return
  3171  01A0                     __end_of_I2C_Slave_Send_ACK:	
  3172                           
  3173                           	psect	text17
  3174  01C6                     __ptext17:	
  3175 ;; *************** function _I2C_BusCollisionISR *****************
  3176 ;; Defined at:
  3177 ;;		line 413 in file "iic.c"
  3178 ;; Parameters:    Size  Location     Type
  3179 ;;		None
  3180 ;; Auto vars:     Size  Location     Type
  3181 ;;		None
  3182 ;; Return value:  Size  Location     Type
  3183 ;;                  1    wreg      void 
  3184 ;; Registers used:
  3185 ;;		None
  3186 ;; Tracked objects:
  3187 ;;		On entry : 0/0
  3188 ;;		On exit  : 0/0
  3189 ;;		Unchanged: 0/0
  3190 ;; Data sizes:     COMMON   BANK0   BANK1   BANK2
  3191 ;;      Params:         0       0       0       0
  3192 ;;      Locals:         0       0       0       0
  3193 ;;      Temps:          0       0       0       0
  3194 ;;      Totals:         0       0       0       0
  3195 ;;Total ram usage:        0 bytes
  3196 ;; Hardware stack levels used:    1
  3197 ;; This function calls:
  3198 ;;		Nothing
  3199 ;; This function is called by:
  3200 ;;		_INTERRUPT_InterruptManager
  3201 ;; This function uses a non-reentrant model
  3202 ;;
  3203                           
  3204                           
  3205                           ;psect for function _I2C_BusCollisionISR
  3206  01C6                     _I2C_BusCollisionISR:	
  3207                           
  3208                           ;iic.c: 415:     PIR3bits.BCL1IF = 0;
  3209                           
  3210                           ;incstack = 0
  3211                           ; Regs used in _I2C_BusCollisionISR: []
  3212  01C6  014E               	movlb	14	; select bank14
  3213  01C7  108F               	bcf	15,1	;volatile
  3214  01C8  0008               	return
  3215  01C9                     __end_of_I2C_BusCollisionISR:	
  3216  007E                     btemp	set	126	;btemp
  3217  007E                     int$flags	set	126
  3218  007E                     wtemp0	set	126


Data Sizes:
    Strings     0
    Constant    6
    Data        0
    BSS         7
    Persistent  34
    Stack       0

Auto Spaces:
    Space          Size  Autos    Used
    COMMON           14     13      14
    BANK0            80     11      19
    BANK1            80      0       0
    BANK2            80      0       0

Pointer List with Targets:

    IOCAF2_SetInterruptHandler@InterruptHandler	PTR FTN()void  size(2) Largest target is 1
		 -> IOC_ISR(), IOCAF2_DefaultInterruptHandler(), 

    IOCAF2_InterruptHandler	PTR FTN()void  size(2) Largest target is 1
		 -> IOC_ISR(), Absolute function(), IOCAF2_DefaultInterruptHandler(), 


Critical Paths under _main in COMMON

    None.

Critical Paths under _INTERRUPT_InterruptManager in COMMON

    _INTERRUPT_InterruptManager->_I2C_Slave_ISR
    _I2C_Slave_ISR->i1_Delay_Xms

Critical Paths under _main in BANK0

    _main->_Delay_Xms
    _PIN_MANAGER_Initialize->_IOCAF2_SetInterruptHandler

Critical Paths under _INTERRUPT_InterruptManager in BANK0

    _INTERRUPT_InterruptManager->_I2C_Slave_ISR

Critical Paths under _main in BANK1

    None.

Critical Paths under _INTERRUPT_InterruptManager in BANK1

    None.

Critical Paths under _main in BANK2

    None.

Critical Paths under _INTERRUPT_InterruptManager in BANK2

    None.

Call Graph Tables:

 ---------------------------------------------------------------------------------
 (Depth) Function   	        Calls       Base Space   Used Autos Params    Refs
 ---------------------------------------------------------------------------------
 (0) _main                                                 0     0      0     874
                          _Delay_Xms
         _IOCAF2_SetInterruptHandler
                  _SYSTEM_Initialize
 ---------------------------------------------------------------------------------
 (1) _SYSTEM_Initialize                                    0     0      0     174
                    _I2C1_Initialize
              _OSCILLATOR_Initialize
             _PIN_MANAGER_Initialize
                     _PMD_Initialize
 ---------------------------------------------------------------------------------
 (2) _PMD_Initialize                                       0     0      0       0
 ---------------------------------------------------------------------------------
 (2) _PIN_MANAGER_Initialize                               0     0      0     174
         _IOCAF2_SetInterruptHandler
 ---------------------------------------------------------------------------------
 (3) _IOCAF2_SetInterruptHandler                           2     0      2     174
                                              2 BANK0      2     0      2
 ---------------------------------------------------------------------------------
 (2) _OSCILLATOR_Initialize                                0     0      0       0
 ---------------------------------------------------------------------------------
 (2) _I2C1_Initialize                                      0     0      0       0
                     _I2C_Slave_Init
 ---------------------------------------------------------------------------------
 (3) _I2C_Slave_Init                                       0     0      0       0
 ---------------------------------------------------------------------------------
 (1) _Delay_Xms                                            9     5      4     526
                                              2 BANK0      9     5      4
 ---------------------------------------------------------------------------------
 Estimated maximum stack depth 3
 ---------------------------------------------------------------------------------
 (Depth) Function   	        Calls       Base Space   Used Autos Params    Refs
 ---------------------------------------------------------------------------------
 (4) _INTERRUPT_InterruptManager                           0     0      0     144
                _I2C_BusCollisionISR
                      _I2C_Slave_ISR
                    _PIN_MANAGER_IOC
 ---------------------------------------------------------------------------------
 (5) _PIN_MANAGER_IOC                                      0     0      0       0
                         _IOCAF2_ISR
 ---------------------------------------------------------------------------------
 (6) _IOCAF2_ISR                                           0     0      0       0
                   Absolute function *
     _IOCAF2_DefaultInterruptHandler *
                            _IOC_ISR *
 ---------------------------------------------------------------------------------
 (7) _IOC_ISR                                              0     0      0       0
 ---------------------------------------------------------------------------------
 (7) _IOCAF2_DefaultInterruptHandler                       0     0      0       0
 ---------------------------------------------------------------------------------
 (7) Absolute function(Fake)                               0     0      0       0
 ---------------------------------------------------------------------------------
 (5) _I2C_Slave_ISR                                        6     6      0     144
                                              9 COMMON     4     4      0
                                              0 BANK0      2     2      0
                 _I2C_Slave_Send_ACK
                        i1_Delay_Xms
 ---------------------------------------------------------------------------------
 (6) i1_Delay_Xms                                          9     5      4      98
                                              0 COMMON     9     5      4
 ---------------------------------------------------------------------------------
 (6) _I2C_Slave_Send_ACK                                   1     1      0      22
                                              0 COMMON     1     1      0
 ---------------------------------------------------------------------------------
 (5) _I2C_BusCollisionISR                                  0     0      0       0
 ---------------------------------------------------------------------------------
 Estimated maximum stack depth 7
 ---------------------------------------------------------------------------------

 Call Graph Graphs:

 _main (ROOT)
   _Delay_Xms
   _IOCAF2_SetInterruptHandler
   _SYSTEM_Initialize
     _I2C1_Initialize
       _I2C_Slave_Init
     _OSCILLATOR_Initialize
     _PIN_MANAGER_Initialize
       _IOCAF2_SetInterruptHandler
     _PMD_Initialize

 _INTERRUPT_InterruptManager (ROOT)
   _I2C_BusCollisionISR
   _I2C_Slave_ISR
     _I2C_Slave_Send_ACK
     i1_Delay_Xms
   _PIN_MANAGER_IOC
     _IOCAF2_ISR
       Absolute function(Fake) *
       _IOCAF2_DefaultInterruptHandler *
       _IOC_ISR *

 Address spaces:
Name               Size   Autos  Total    Cost      Usage
BIGRAM              F0      0       0       0        0.0%
NULL                 0      0       0       0        0.0%
CODE                 0      0       0       0        0.0%
BITCOMMON            E      0       0       1        0.0%
BITSFR0              0      0       0       1        0.0%
SFR0                 0      0       0       1        0.0%
COMMON               E      D       E       2      100.0%
BITSFR1              0      0       0       2        0.0%
SFR1                 0      0       0       2        0.0%
BITSFR2              0      0       0       3        0.0%
SFR2                 0      0       0       3        0.0%
STACK                0      0       0       3        0.0%
BITBANK0            50      0       0       4        0.0%
BITSFR3              0      0       0       4        0.0%
SFR3                 0      0       0       4        0.0%
BANK0               50      B      13       5       23.8%
BITSFR4              0      0       0       5        0.0%
SFR4                 0      0       0       5        0.0%
BITBANK1            50      0       0       6        0.0%
BITSFR5              0      0       0       6        0.0%
SFR5                 0      0       0       6        0.0%
BANK1               50      0       0       7        0.0%
BITSFR6              0      0       0       7        0.0%
SFR6                 0      0       0       7        0.0%
BITBANK2            50      0       0       8        0.0%
BITSFR7              0      0       0       8        0.0%
SFR7                 0      0       0       8        0.0%
BANK2               50      0       0       9        0.0%
BITSFR8              0      0       0       9        0.0%
SFR8                 0      0       0       9        0.0%
BITSFR9              0      0       0      10        0.0%
SFR9                 0      0       0      10        0.0%
ABS                  0      0      21      10        0.0%
BITSFR10             0      0       0      11        0.0%
SFR10                0      0       0      11        0.0%
DATA                 0      0      21      11        0.0%
BITSFR11             0      0       0      12        0.0%
SFR11                0      0       0      12        0.0%
BITSFR12             0      0       0      13        0.0%
SFR12                0      0       0      13        0.0%
BITSFR13             0      0       0      14        0.0%
SFR13                0      0       0      14        0.0%
BITSFR14             0      0       0      15        0.0%
SFR14                0      0       0      15        0.0%
BITSFR15             0      0       0      16        0.0%
SFR15                0      0       0      16        0.0%
BITSFR16             0      0       0      17        0.0%
SFR16                0      0       0      17        0.0%
BITSFR17             0      0       0      18        0.0%
SFR17                0      0       0      18        0.0%
BITSFR18             0      0       0      19        0.0%
SFR18                0      0       0      19        0.0%
BITSFR19             0      0       0      20        0.0%
SFR19                0      0       0      20        0.0%
BITSFR20             0      0       0      21        0.0%
SFR20                0      0       0      21        0.0%
BITSFR21             0      0       0      22        0.0%
SFR21                0      0       0      22        0.0%
BITSFR22             0      0       0      23        0.0%
SFR22                0      0       0      23        0.0%
BITSFR23             0      0       0      24        0.0%
SFR23                0      0       0      24        0.0%
BITSFR24             0      0       0      25        0.0%
SFR24                0      0       0      25        0.0%
BITSFR25             0      0       0      26        0.0%
SFR25                0      0       0      26        0.0%
BITSFR26             0      0       0      27        0.0%
SFR26                0      0       0      27        0.0%
BITSFR27             0      0       0      28        0.0%
SFR27                0      0       0      28        0.0%
BITSFR28             0      0       0      29        0.0%
SFR28                0      0       0      29        0.0%
BITSFR29             0      0       0      30        0.0%
SFR29                0      0       0      30        0.0%
BITSFR30             0      0       0      31        0.0%
SFR30                0      0       0      31        0.0%
BITSFR31             0      0       0      32        0.0%
SFR31                0      0       0      32        0.0%
BITSFR32             0      0       0      33        0.0%
SFR32                0      0       0      33        0.0%
BITSFR33             0      0       0      34        0.0%
SFR33                0      0       0      34        0.0%
BITSFR34             0      0       0      35        0.0%
SFR34                0      0       0      35        0.0%
BITSFR35             0      0       0      36        0.0%
SFR35                0      0       0      36        0.0%
BITSFR36             0      0       0      37        0.0%
SFR36                0      0       0      37        0.0%
BITSFR37             0      0       0      38        0.0%
SFR37                0      0       0      38        0.0%
BITSFR38             0      0       0      39        0.0%
SFR38                0      0       0      39        0.0%
BITSFR39             0      0       0      40        0.0%
SFR39                0      0       0      40        0.0%
BITSFR40             0      0       0      41        0.0%
SFR40                0      0       0      41        0.0%
BITSFR41             0      0       0      42        0.0%
SFR41                0      0       0      42        0.0%
BITSFR42             0      0       0      43        0.0%
SFR42                0      0       0      43        0.0%
BITSFR43             0      0       0      44        0.0%
SFR43                0      0       0      44        0.0%
BITSFR44             0      0       0      45        0.0%
SFR44                0      0       0      45        0.0%
BITSFR45             0      0       0      46        0.0%
SFR45                0      0       0      46        0.0%
BITSFR46             0      0       0      47        0.0%
SFR46                0      0       0      47        0.0%
BITSFR47             0      0       0      48        0.0%
SFR47                0      0       0      48        0.0%
BITSFR48             0      0       0      49        0.0%
SFR48                0      0       0      49        0.0%
BITSFR49             0      0       0      50        0.0%
SFR49                0      0       0      50        0.0%
BITSFR50             0      0       0      51        0.0%
SFR50                0      0       0      51        0.0%
BITSFR51             0      0       0      52        0.0%
SFR51                0      0       0      52        0.0%
BITSFR52             0      0       0      53        0.0%
SFR52                0      0       0      53        0.0%
BITSFR53             0      0       0      54        0.0%
SFR53                0      0       0      54        0.0%
BITSFR54             0      0       0      55        0.0%
SFR54                0      0       0      55        0.0%
BITSFR55             0      0       0      56        0.0%
SFR55                0      0       0      56        0.0%
BITSFR56             0      0       0      57        0.0%
SFR56                0      0       0      57        0.0%
BITSFR57             0      0       0      58        0.0%
SFR57                0      0       0      58        0.0%
BITSFR58             0      0       0      59        0.0%
SFR58                0      0       0      59        0.0%
BITSFR59             0      0       0      60        0.0%
SFR59                0      0       0      60        0.0%
BITSFR60             0      0       0      61        0.0%
SFR60                0      0       0      61        0.0%
BITSFR61             0      0       0      62        0.0%
SFR61                0      0       0      62        0.0%
BITSFR62             0      0       0      63        0.0%
SFR62                0      0       0      63        0.0%
BITSFR63             0      0       0      64        0.0%
SFR63                0      0       0      64        0.0%


Microchip Technology PIC Macro Assembler V2.05 build -831301201 
Symbol Table                                                                                   Fri Jul 05 23:22:35 2019

                               __CFG_CP$OFF 0000                                          _d0 002E  
                                        _d1 002D                                          _d2 002C  
                                        _d3 002B                          _cmd_getModuleIndex 01CD  
                               __CFG_LVP$ON 0000                                         l191 00E3  
                                       u683 00F5                                         u777 00FB  
                   __size_of_PMD_Initialize 0008                                __CFG_BORV$LO 0000  
                                       wreg 0009          __end_of_IOCAF2_SetInterruptHandler 01B8  
                _IOCAF2_SetInterruptHandler 01B2                               __CFG_BBEN$OFF 0000  
                              __CFG_ZCD$OFF 0000                             __end_of_IOC_ISR 01C6  
                                      l1457 00D2                                        _LATA 0018  
                                      _LATC 001A                                        _PMD0 0796  
                                      _PMD1 0797                                        _PMD2 0798  
                                      i1l31 0017                                        i1l23 000C  
                                      _PMD3 0799                                        _PMD4 079A  
                                      _PMD5 079B                                        i1l26 0013  
                                      _WPUA 1F39                                        _WPUC 1F4F  
                             __CFG_FCMEN$ON 0000                                        _main 0086  
                                      btemp 007E                               __CFG_BOREN$ON 0000  
                                      start 0019                               __CFG_CSWEN$ON 0000  
                             __CFG_MCLRE$ON 0000              __size_of_OSCILLATOR_Initialize 000A  
                       __size_of_IOCAF2_ISR 000D               __end_of_OSCILLATOR_Initialize 01AA  
                                     ?_main 0070                               __CFG_WDTE$OFF 0000  
                                     i1l401 0077                                       i1l322 0199  
                                     i1l403 0066                                       i1l406 007B  
                                     i1l191 013E                                       i1l396 0063  
                                     _OSCEN 0891                                       u61_25 003E  
                                     u62_25 0044                                       u55_23 0150  
                                     u63_25 004A                                       _TRISA 0012  
                                     _TRISC 0014                                       u78_27 0155  
                         ??_I2C1_Initialize 0022                               __CFG_WRTB$OFF 0000  
                             __CFG_WRTC$OFF 0000                     __end_of_PIN_MANAGER_IOC 01C2  
                                     pclath 000A                                       status 0003  
                                     wtemp0 007E                             __initialization 001A  
                    __size_of_I2C_Slave_ISR 0061                                __end_of_main 00DA  
                            __CFG_SAFEN$OFF 0000                 ?_INTERRUPT_InterruptManager 0070  
                        __size_of_Delay_Xms 0030                                      ??_main 002B  
                                 ??_IOC_ISR 0070                                      _ANSELA 1F38  
                                    _ANSELC 1F4E                          __CFG_RSTOSC$HFINT1 0000  
                              ?i1_Delay_Xms 0070                                      _RC0PPS 1F20  
                                    _RC1PPS 1F21                                      _ODCONA 1F3A  
                                    _ODCONC 1F50                                      i1l1381 0037  
                                    i1l1357 0190                                      i1l1387 0058  
                            __CFG_WDTCCS$SC 0000                                      _OSCFRQ 0893  
                            __CFG_PWRTE$OFF 0000                              __CFG_STVREN$ON 0000  
                            _PMD_Initialize 01AA                  __end_of_I2C_Slave_Send_ACK 01A0  
                             _I2C_Slave_ISR 0025  IOCAF2_SetInterruptHandler@InterruptHandler 0022  
                          ?_PIN_MANAGER_IOC 0070                                ??_IOCAF2_ISR 0070  
                         _SYSTEM_Initialize 01B8                           __end_of_Delay_Xms 010A  
                   __end_of__initialization 0022                          ?_SYSTEM_Initialize 0070  
                            __pcstackCOMMON 0070                     __size_of_I2C_Slave_Init 0024  
                       ??_SYSTEM_Initialize 0024                      __end_of_PMD_Initialize 01B2  
                        __end_of_IOCAF2_ISR 0193                              ?_I2C_Slave_ISR 0070  
               ?_IOCAF2_SetInterruptHandler 0022            ??_IOCAF2_DefaultInterruptHandler 0070  
           ?_IOCAF2_DefaultInterruptHandler 0070                   __end_of_SYSTEM_Initialize 01BD  
                                __pbssBANK0 002B                __size_of_I2C_BusCollisionISR 0003  
                                __pmaintext 0086                             __CFG_PPS1WAY$ON 0000  
                                __pintentry 0004                             _I2C1_Initialize 01CF  
                           ?_PMD_Initialize 0070                              Delay_Xms@delay 0022  
                                   _IOC_ISR 01C2                                     _OSCCON1 088D  
                                   _OSCCON3 088F                                     _OSCSTAT 0890  
                                   _OSCTUNE 0892                                     _SSP1ADD 018D  
                                   _SLRCONA 1F3B                                     _SLRCONC 1F51  
                                   _SSP1BUF 018C                                     _SSP1MSK 018E  
                      __size_ofi1_Delay_Xms 002C                                     __ptext1 01B8  
                                   __ptext2 01AA                                     __ptext3 010A  
                                   __ptext4 01B2                                     __ptext5 01A0  
                                   __ptext6 01CF                                     __ptext7 0162  
                                   __ptext8 00DA                             ??_I2C_Slave_ISR 0079  
                           __CFG_WRTAPP$OFF 0000                                     _lastCmd 007D  
                     _OSCILLATOR_Initialize 01A0                    ??_PIN_MANAGER_Initialize 0024  
                                 _IOCAFbits 1F3F                             __CFG_WRTSAF$OFF 0000  
                                 _IOCANbits 1F3E                                   _IOCAPbits 1F3D  
                __size_of_SYSTEM_Initialize 0005                        end_of_initialization 0022  
                   __end_of_I2C1_Initialize 01D1                       I2C_Slave_Send_ACK@Ack 0070  
                            _I2C_Slave_Init 0162                       __CFG_WDTCPS$WDTCPS_31 0000  
                                 _PORTAbits 000C                                   _PORTCbits 000E  
                                 _TRISCbits 0014                            __CFG_FEXTOSC$OFF 0000  
                        _I2C_Slave_Send_ACK 0193                      __end_of_I2C_Slave_Init 0186  
                                 _Delay_Xms 00DA                         __end_of_cmd_getData 01CB  
                       ?_I2C_Slave_Send_ACK 0070                      ?_OSCILLATOR_Initialize 0070  
                       _I2C_BusCollisionISR 01C6                         start_initialization 001A  
           __size_of_PIN_MANAGER_Initialize 002C                        ??_I2C_Slave_Send_ACK 0070  
                      ?_I2C_BusCollisionISR 0070                    __size_of_PIN_MANAGER_IOC 0005  
                                ?_Delay_Xms 0022      __end_of_IOCAF2_DefaultInterruptHandler 01D2  
   __size_of_IOCAF2_DefaultInterruptHandler 0001              _IOCAF2_DefaultInterruptHandler 01D1  
                           ?_I2C_Slave_Init 0070                            ?_I2C1_Initialize 0070  
                          __CFG_LPBOREN$OFF 0000                            ??_PMD_Initialize 0022  
                                  ?_IOC_ISR 0070                                 __pbssCOMMON 007D  
                                 ___latbits 0000                               __pcstackBANK0 0020  
                          i1Delay_Xms@delay 0070                                 _cmd_getData 01C9  
                     ??_I2C_BusCollisionISR 0070                                   __pnvBANK0 0031  
                    _PIN_MANAGER_Initialize 010A                                i1Delay_Xms@i 0075  
              ??_INTERRUPT_InterruptManager 007D                               ??i1_Delay_Xms 0074  
                __end_of_cmd_getModuleIndex 01CF                                    _LATCbits 001A  
                                  _PIE0bits 0716                                    _PIE3bits 0719  
                               ??_Delay_Xms 0026         __size_of_INTERRUPT_InterruptManager 0015  
                                  _PIR0bits 070C                                    _PIR3bits 070F  
                         __CFG_BBSIZE$BB512 0000                                    _SSP1CON1 0190  
                                  _SSP1CON2 0191                                    _SSP1CON3 0192  
                                  _SSP1STAT 018F                           ??_PIN_MANAGER_IOC 0070  
                     __end_of_I2C_Slave_ISR 0086                            __size_of_IOC_ISR 0004  
                                _I2C_RX_CMD 0030                         __end_of_moduleIndex 01CD  
                       __end_ofi1_Delay_Xms 0162                     ??_OSCILLATOR_Initialize 0022  
                                _ANSELCbits 1F4E                     _IOCAF2_InterruptHandler 0031  
              ??_IOCAF2_SetInterruptHandler 0024                                    __ptext10 01BD  
                                  __ptext11 0186                                    __ptext12 01D1  
                                  __ptext13 01C2                                    __ptext14 0025  
                                  __ptext15 0136                                    __ptext16 0193  
                                  __ptext17 01C6                                _SSP1CON1bits 0190  
                              _SSP1CON2bits 0191                                  _IOCAF2_ISR 0186  
                          ??_I2C_Slave_Init 0022                               __size_of_main 0054  
                      __CFG_WDTCWS$WDTCWS_7 0000                                    int$flags 007E  
        __end_of_INTERRUPT_InterruptManager 0019                  _INTERRUPT_InterruptManager 0004  
                              _SSP1STATbits 018F         __size_of_IOCAF2_SetInterruptHandler 0006  
                               _moduleIndex 01CB                                  _INTCONbits 000B  
                                Delay_Xms@i 0027                 __size_of_I2C_Slave_Send_ACK 000D  
                                  intlevel1 0000                                 i1_Delay_Xms 0136  
                               _RF_RECEIVED 002F                     ?_PIN_MANAGER_Initialize 0070  
                         __CFG_CLKOUTEN$OFF 0000                             I2C_Slave_ISR@dx 0021  
                  __size_of_I2C1_Initialize 0002                               __pstringtext1 01C9  
                             __pstringtext2 01CB                               __pstringtext3 01CD  
                                _SSP1DATPPS 1EC6                                  _SSP1CLKPPS 1EC5  
               __end_of_I2C_BusCollisionISR 01C9                                 ?_IOCAF2_ISR 0070  
            __end_of_PIN_MANAGER_Initialize 0136                             _PIN_MANAGER_IOC 01BD  
